---
triple:          'arm64-apple-darwin'
binary-path:     '/Users/kevinliangx/Developer/Repos/PublicCodeHub/KevinLiangX/AntigravityProxyLauncher/AntigravityTun/build/Release/libAntigravityTun.dylib'
relocations:
  - { offset: 0x3E, size: 0x8, addend: 0x0, symName: __ZN4Core6Logger6s_fileE, symObjAddr: 0x261BE0, symBinAddr: 0x20360, symSize: 0x0 }
  - { offset: 0x16F, size: 0x8, addend: 0x0, symName: __ZN4Core6Logger5s_mtxE, symObjAddr: 0x18D88, symBinAddr: 0x200E0, symSize: 0x0 }
  - { offset: 0x182, size: 0x8, addend: 0x0, symName: __ZN4Core6Logger7s_levelE, symObjAddr: 0x18DC8, symBinAddr: 0x20120, symSize: 0x0 }
  - { offset: 0x195, size: 0x8, addend: 0x0, symName: __ZN4Core6Logger20s_fileLoggingEnabledE, symObjAddr: 0x261BE8, symBinAddr: 0x20368, symSize: 0x0 }
  - { offset: 0xC435, size: 0x8, addend: 0x0, symName: __ZNSt3__119piecewise_constructE, symObjAddr: 0x18CA3, symBinAddr: 0x18873, symSize: 0x0 }
  - { offset: 0x215A0, size: 0x8, addend: 0x0, symName: __ZNSt3__124__put_character_sequenceB9nqe210106IcNS_11char_traitsIcEEEERNS_13basic_ostreamIT_T0_EES7_PKS4_m, symObjAddr: 0x61B0, symBinAddr: 0x6B00, symSize: 0x168 }
  - { offset: 0x274C7, size: 0x8, addend: 0x0, symName: __ZNSt3__1plB9nqe210106IcNS_11char_traitsIcEENS_9allocatorIcEEEENS_12basic_stringIT_T0_T1_EEPKS6_OS9_, symObjAddr: 0x1708, symBinAddr: 0x2058, symSize: 0x5C }
  - { offset: 0x275B3, size: 0x8, addend: 0x0, symName: __ZNSt3__1plB9nqe210106IcNS_11char_traitsIcEENS_9allocatorIcEEEENS_12basic_stringIT_T0_T1_EEOS9_PKS6_, symObjAddr: 0x161C, symBinAddr: 0x1F6C, symSize: 0x5C }
  - { offset: 0x28534, size: 0x8, addend: 0x0, symName: __ZNSt3__16__findB9nqe210106IPNS_12basic_stringIcNS_11char_traitsIcEENS_9allocatorIcEEEES7_S6_NS_10__identityEEET_S9_T0_RKT1_RT2_, symObjAddr: 0x5BFC, symBinAddr: 0x654C, symSize: 0x90 }
  - { offset: 0x2868E, size: 0x8, addend: 0x0, symName: __ZNSt3__1plB9nqe210106IcNS_11char_traitsIcEENS_9allocatorIcEEEENS_12basic_stringIT_T0_T1_EERKS9_PKS6_, symObjAddr: 0x4218, symBinAddr: 0x4B68, symSize: 0x6C }
  - { offset: 0x288F1, size: 0x8, addend: 0x0, symName: __ZNSt3__121__concatenate_stringsB9nqe210106IcNS_11char_traitsIcEENS_9allocatorIcEEEENS_12basic_stringIT_T0_T1_EERKS8_NS_15__type_identityINS_17basic_string_viewIS6_S7_EEE4typeESG_, symObjAddr: 0x5F00, symBinAddr: 0x6850, symSize: 0x90 }
  - { offset: 0x28DC8, size: 0x8, addend: 0x0, symName: __ZNSt3__119__allocate_at_leastB9nqe210106INS_9allocatorItEEEENS_19__allocation_resultINS_16allocator_traitsIT_E7pointerEEERS5_m, symObjAddr: 0x11CFC, symBinAddr: 0x120F4, symSize: 0x30 }
  - { offset: 0x28E54, size: 0x8, addend: 0x0, symName: __ZN8nlohmann16json_abi_v3_12_06detail9from_jsonINS0_10basic_jsonINSt3__13mapENS4_6vectorENS4_12basic_stringIcNS4_11char_traitsIcEENS4_9allocatorIcEEEEbxydSA_NS0_14adl_serializerENS6_IhNSA_IhEEEEvEEtLi0EEEvRKT_RT0_, symObjAddr: 0x11D2C, symBinAddr: 0x12124, symSize: 0x114 }
  - { offset: 0x29167, size: 0x8, addend: 0x0, symName: __ZNSt3__119__allocate_at_leastB9nqe210106INS_9allocatorINS_12basic_stringIcNS_11char_traitsIcEENS1_IcEEEEEEEENS_19__allocation_resultINS_16allocator_traitsIT_E7pointerEEERSA_m, symObjAddr: 0x5E34, symBinAddr: 0x6784, symSize: 0x44 }
  - { offset: 0x291F3, size: 0x8, addend: 0x0, symName: __ZNSt3__114__split_bufferINS_12basic_stringIcNS_11char_traitsIcEENS_9allocatorIcEEEERNS4_IS6_EEED2Ev, symObjAddr: 0x5E78, symBinAddr: 0x67C8, symSize: 0x34 }
  - { offset: 0x294F3, size: 0x8, addend: 0x0, symName: __ZNSt3__120__throw_length_errorB9nqe210106EPKc, symObjAddr: 0x5AA0, symBinAddr: 0x63F0, symSize: 0x50 }
  - { offset: 0x29C6D, size: 0x8, addend: 0x0, symName: __ZNSt3__116__pad_and_outputB9nqe210106IcNS_11char_traitsIcEEEENS_19ostreambuf_iteratorIT_T0_EES6_PKS4_S8_S8_RNS_8ios_baseES4_, symObjAddr: 0x6318, symBinAddr: 0x6C68, symSize: 0x140 }
  - { offset: 0x2B402, size: 0x8, addend: 0x0, symName: __ZNSt3__119__allocate_at_leastB9nqe210106INS_9allocatorImEEEENS_19__allocation_resultINS_16allocator_traitsIT_E7pointerEEERS5_m, symObjAddr: 0xA688, symBinAddr: 0xAF24, symSize: 0x34 }
  - { offset: 0x2B48E, size: 0x8, addend: 0x0, symName: __ZNSt3__124__copy_move_unwrap_itersB9nqe210106INS_11__copy_implENS_14__bit_iteratorINS_6vectorIbNS_9allocatorIbEEEELb0ELm0EEES7_S7_Li0EEENS_4pairIT0_T2_EES9_T1_SA_, symObjAddr: 0xA6BC, symBinAddr: 0xAF58, symSize: 0x8C }
  - { offset: 0x2B6A5, size: 0x8, addend: 0x0, symName: __ZNSt3__124__copy_move_unwrap_itersB9nqe210106INS_11__copy_implENS_14__bit_iteratorINS_6vectorIbNS_9allocatorIbEEEELb0ELm0EEES7_S7_Li0EEENS_4pairIT0_T2_EES9_T1_SA_, symObjAddr: 0xA6BC, symBinAddr: 0xAF58, symSize: 0x8C }
  - { offset: 0x2BC2C, size: 0x8, addend: 0x0, symName: __ZNSt3__114__copy_alignedB9nqe210106INS_6vectorIbNS_9allocatorIbEEEELb0EEENS_14__bit_iteratorIT_Lb0EXLi0EEEENS5_IS6_XT0_EXLi0EEEES8_S7_, symObjAddr: 0xA81C, symBinAddr: 0xB0B8, symSize: 0x158 }
  - { offset: 0x2BF42, size: 0x8, addend: 0x0, symName: __ZNSt3__116__copy_unalignedB9nqe210106INS_6vectorIbNS_9allocatorIbEEEELb0EEENS_14__bit_iteratorIT_Lb0EXLi0EEEENS5_IS6_XT0_EXLi0EEEES8_S7_, symObjAddr: 0xA974, symBinAddr: 0xB210, symSize: 0x234 }
  - { offset: 0x2BFAE, size: 0x8, addend: 0x0, symName: __ZNSt3__116__copy_unalignedB9nqe210106INS_6vectorIbNS_9allocatorIbEEEELb0EEENS_14__bit_iteratorIT_Lb0EXLi0EEEENS5_IS6_XT0_EXLi0EEEES8_S7_, symObjAddr: 0xA974, symBinAddr: 0xB210, symSize: 0x234 }
  - { offset: 0x2C55A, size: 0x8, addend: 0x0, symName: __ZNSt3__125__throw_bad_function_callB9nqe210106Ev, symObjAddr: 0xBA54, symBinAddr: 0xC2F0, symSize: 0x34 }
  - { offset: 0x2C7D7, size: 0x8, addend: 0x0, symName: __ZN8nlohmann16json_abi_v3_12_06detail12out_of_rangeD0Ev, symObjAddr: 0xBE44, symBinAddr: 0xC684, symSize: 0x38 }
  - { offset: 0x2C854, size: 0x8, addend: 0x0, symName: __ZNSt3__119__allocate_at_leastB9nqe210106INS_9allocatorIN8nlohmann16json_abi_v3_12_010basic_jsonINS_3mapENS_6vectorENS_12basic_stringIcNS_11char_traitsIcEENS1_IcEEEEbxydS1_NS3_14adl_serializerENS6_IhNS1_IhEEEEvEEEEEENS_19__allocation_resultINS_16allocator_traitsIT_E7pointerEEERSJ_m, symObjAddr: 0xBBD8, symBinAddr: 0xC460, symSize: 0x34 }
  - { offset: 0x2C8E0, size: 0x8, addend: 0x0, symName: __ZNSt3__134__uninitialized_allocator_relocateB9nqe210106INS_9allocatorIN8nlohmann16json_abi_v3_12_010basic_jsonINS_3mapENS_6vectorENS_12basic_stringIcNS_11char_traitsIcEENS1_IcEEEEbxydS1_NS3_14adl_serializerENS6_IhNS1_IhEEEEvEEEEPSF_EEvRT_T0_SK_SK_, symObjAddr: 0xBC0C, symBinAddr: 0xC494, symSize: 0xD0 }
  - { offset: 0x2C8F4, size: 0x8, addend: 0x0, symName: __ZNSt3__134__uninitialized_allocator_relocateB9nqe210106INS_9allocatorIN8nlohmann16json_abi_v3_12_010basic_jsonINS_3mapENS_6vectorENS_12basic_stringIcNS_11char_traitsIcEENS1_IcEEEEbxydS1_NS3_14adl_serializerENS6_IhNS1_IhEEEEvEEEEPSF_EEvRT_T0_SK_SK_, symObjAddr: 0xBC0C, symBinAddr: 0xC494, symSize: 0xD0 }
  - { offset: 0x2CCBB, size: 0x8, addend: 0x0, symName: __ZNSt3__119__allocator_destroyB9nqe210106INS_9allocatorIN8nlohmann16json_abi_v3_12_010basic_jsonINS_3mapENS_6vectorENS_12basic_stringIcNS_11char_traitsIcEENS1_IcEEEEbxydS1_NS3_14adl_serializerENS6_IhNS1_IhEEEEvEEEENS_16reverse_iteratorIPSF_EESJ_EEvRT_T0_T1_, symObjAddr: 0xBD24, symBinAddr: 0xC5AC, symSize: 0x48 }
  - { offset: 0x2D17C, size: 0x8, addend: 0x0, symName: __ZNSt3__112__destroy_atB9nqe210106INS_4pairIKNS_12basic_stringIcNS_11char_traitsIcEENS_9allocatorIcEEEEN8nlohmann16json_abi_v3_12_010basic_jsonINS_3mapENS_6vectorES7_bxydS5_NSA_14adl_serializerENSD_IhNS5_IhEEEEvEEEELi0EEEvPT_, symObjAddr: 0xCA70, symBinAddr: 0xD2B0, symSize: 0x48 }
  - { offset: 0x2D6B6, size: 0x8, addend: 0x0, symName: __ZNSt3__1ssB9nqe210106IcNS_11char_traitsIcEENS_9allocatorIcEEEEDaRKNS_12basic_stringIT_T0_T1_EESC_, symObjAddr: 0xC774, symBinAddr: 0xCFB4, symSize: 0x78 }
  - { offset: 0x2D975, size: 0x8, addend: 0x0, symName: __ZNSt3__127__tree_balance_after_insertB9nqe210106IPNS_16__tree_node_baseIPvEEEEvT_S5_, symObjAddr: 0xC860, symBinAddr: 0xD0A0, symSize: 0x1C8 }
  - { offset: 0x2E0D5, size: 0x8, addend: 0x0, symName: __ZNSt3__135__uninitialized_allocator_copy_implB9nqe210106INS_9allocatorIN8nlohmann16json_abi_v3_12_010basic_jsonINS_3mapENS_6vectorENS_12basic_stringIcNS_11char_traitsIcEENS1_IcEEEEbxydS1_NS3_14adl_serializerENS6_IhNS1_IhEEEEvEEEEPSF_SH_SH_EET2_RT_T0_T1_SI_, symObjAddr: 0xCC34, symBinAddr: 0xD474, symSize: 0xA0 }
  - { offset: 0x2EE84, size: 0x8, addend: 0x0, symName: __ZNSt3__113__tree_removeB9nqe210106IPNS_16__tree_node_baseIPvEEEEvT_S5_, symObjAddr: 0xD894, symBinAddr: 0xE0C0, symSize: 0x3C4 }
  - { offset: 0x2F889, size: 0x8, addend: 0x0, symName: __ZNSt3__1ssB9nqe210106IcNS_11char_traitsIcEENS_9allocatorIcEEEEDaRKNS_12basic_stringIT_T0_T1_EEPKS7_, symObjAddr: 0x10D6C, symBinAddr: 0x114D8, symSize: 0x80 }
  - { offset: 0x2FEAF, size: 0x8, addend: 0x0, symName: __ZNSt3__117__call_once_proxyB9nqe210106INS_5tupleIJOZN7Network6FakeIP17EnsureInitializedEvEUlvE_EEEEEvPv, symObjAddr: 0x12370, symBinAddr: 0x12518, symSize: 0xC }
  - { offset: 0x2FEEB, size: 0x8, addend: 0x0, symName: __ZNSt3__117__call_once_proxyB9nqe210106INS_5tupleIJOZN7Network6FakeIP17EnsureInitializedEvEUlvE_EEEEEvPv, symObjAddr: 0x12370, symBinAddr: 0x12518, symSize: 0xC }
  - { offset: 0x2FF08, size: 0x8, addend: 0x0, symName: __ZNSt3__117__call_once_proxyB9nqe210106INS_5tupleIJOZN7Network6FakeIP17EnsureInitializedEvEUlvE_EEEEEvPv, symObjAddr: 0x12370, symBinAddr: 0x12518, symSize: 0xC }
  - { offset: 0x30319, size: 0x8, addend: 0x0, symName: __ZNSt3__117__call_once_proxyB9nqe210106INS_5tupleIJOZN7Network6FakeIP23EnsureSharedInitializedEvEUlvE_EEEEEvPv, symObjAddr: 0x12E94, symBinAddr: 0x1303C, symSize: 0xC }
  - { offset: 0x30355, size: 0x8, addend: 0x0, symName: __ZNSt3__117__call_once_proxyB9nqe210106INS_5tupleIJOZN7Network6FakeIP23EnsureSharedInitializedEvEUlvE_EEEEEvPv, symObjAddr: 0x12E94, symBinAddr: 0x1303C, symSize: 0xC }
  - { offset: 0x30372, size: 0x8, addend: 0x0, symName: __ZNSt3__117__call_once_proxyB9nqe210106INS_5tupleIJOZN7Network6FakeIP23EnsureSharedInitializedEvEUlvE_EEEEEvPv, symObjAddr: 0x12E94, symBinAddr: 0x1303C, symSize: 0xC }
  - { offset: 0x339CA, size: 0x8, addend: 0x0, symName: __ZSt28__throw_bad_array_new_lengthB9nqe210106v, symObjAddr: 0x5B14, symBinAddr: 0x6464, symSize: 0x28 }
  - { offset: 0x33C49, size: 0x8, addend: 0x0, symName: __ZL16g_sockfd_map_mtx, symObjAddr: 0x18DD0, symBinAddr: 0x20128, symSize: 0x0 }
  - { offset: 0x33C63, size: 0x8, addend: 0x0, symName: __ZL12g_sockfd_map, symObjAddr: 0x261BF0, symBinAddr: 0x20370, symSize: 0x0 }
  - { offset: 0x34080, size: 0x8, addend: 0x0, symName: __ZL16g_sockfd_len_map, symObjAddr: 0x261C18, symBinAddr: 0x20398, symSize: 0x0 }
  - { offset: 0x343AD, size: 0x8, addend: 0x0, symName: __Z10my_connectiPK8sockaddrj, symObjAddr: 0x8, symBinAddr: 0x958, symSize: 0x139C }
  - { offset: 0x3A1BE, size: 0x8, addend: 0x0, symName: __Z14my_getaddrinfoPKcS0_PK8addrinfoPPS1_, symObjAddr: 0x222C, symBinAddr: 0x2B7C, symSize: 0x5CC }
  - { offset: 0x3B863, size: 0x8, addend: 0x0, symName: __ZL18_interpose_connect, symObjAddr: 0x1AFE0, symBinAddr: 0x20320, symSize: 0x0 }
  - { offset: 0x3B8A0, size: 0x8, addend: 0x0, symName: __ZL22_interpose_getaddrinfo, symObjAddr: 0x1AFF0, symBinAddr: 0x20330, symSize: 0x0 }
  - { offset: 0x3B8DD, size: 0x8, addend: 0x0, symName: __ZL22_interpose_getpeername, symObjAddr: 0x1B000, symBinAddr: 0x20340, symSize: 0x0 }
  - { offset: 0x3B91A, size: 0x8, addend: 0x0, symName: __ZL16_interpose_close, symObjAddr: 0x1B010, symBinAddr: 0x20350, symSize: 0x0 }
  - { offset: 0x3BB5E, size: 0x8, addend: 0x0, symName: __ZN4Core6Config17ExpandSpecialPathERKNSt3__112basic_stringIcNS1_11char_traitsIcEENS1_9allocatorIcEEEE, symObjAddr: 0x3EF8, symBinAddr: 0x4848, symSize: 0x180 }
  - { offset: 0x3BB7E, size: 0x8, addend: 0x0, symName: __ZZN4Core6Config17ExpandSpecialPathERKNSt3__112basic_stringIcNS1_11char_traitsIcEENS1_9allocatorIcEEEEE17kExecutablePrefix, symObjAddr: 0x18B58, symBinAddr: 0x18728, symSize: 0x0 }
  - { offset: 0x3DF6A, size: 0x8, addend: 0x0, symName: __ZN8nlohmann16json_abi_v3_12_06detail9from_jsonINS0_10basic_jsonINSt3__13mapENS4_6vectorENS4_12basic_stringIcNS4_11char_traitsIcEENS4_9allocatorIcEEEEbxydSA_NS0_14adl_serializerENS6_IhNSA_IhEEEEvEEtLi0EEEvRKT_RT0_, symObjAddr: 0x11D2C, symBinAddr: 0x12124, symSize: 0x114 }
  - { offset: 0x3E2B0, size: 0x8, addend: 0x0, symName: __ZN8nlohmann16json_abi_v3_12_06detail6concatINSt3__112basic_stringIcNS3_11char_traitsIcEENS3_9allocatorIcEEEEJRA25_KcPSA_EEET_DpOT0_, symObjAddr: 0xD728, symBinAddr: 0xDF54, symSize: 0xA0 }
  - { offset: 0x3E5C6, size: 0x8, addend: 0x0, symName: __ZN8nlohmann16json_abi_v3_12_06detail9from_jsonINS0_10basic_jsonINSt3__13mapENS4_6vectorENS4_12basic_stringIcNS4_11char_traitsIcEENS4_9allocatorIcEEEEbxydSA_NS0_14adl_serializerENS6_IhNSA_IhEEEEvEEiLi0EEEvRKT_RT0_, symObjAddr: 0x1156C, symBinAddr: 0x11B6C, symSize: 0x114 }
  - { offset: 0x3F1D2, size: 0x8, addend: 0x0, symName: __ZN8nlohmann16json_abi_v3_12_06detail6concatINSt3__112basic_stringIcNS3_11char_traitsIcEENS3_9allocatorIcEEEEJS9_S9_RKS9_EEET_DpOT0_, symObjAddr: 0x6F90, symBinAddr: 0x78E0, symSize: 0x100 }
  - { offset: 0x3F66B, size: 0x8, addend: 0x0, symName: __ZN8nlohmann16json_abi_v3_12_06detail6concatINSt3__112basic_stringIcNS3_11char_traitsIcEENS3_9allocatorIcEEEEJRA17_KcRKS9_cS9_RA3_SA_EEET_DpOT0_, symObjAddr: 0x711C, symBinAddr: 0x7A6C, symSize: 0x140 }
  - { offset: 0x4000F, size: 0x8, addend: 0x0, symName: __ZN8nlohmann16json_abi_v3_12_06detail6concatINSt3__112basic_stringIcNS3_11char_traitsIcEENS3_9allocatorIcEEEEJRA26_KcS9_cEEET_DpOT0_, symObjAddr: 0xB3C0, symBinAddr: 0xBC5C, symSize: 0xC0 }
  - { offset: 0x403BA, size: 0x8, addend: 0x0, symName: __ZN8nlohmann16json_abi_v3_12_06detail6concatINSt3__112basic_stringIcNS3_11char_traitsIcEENS3_9allocatorIcEEEEJS9_RA12_KcS9_RA3_SA_S9_RKS9_EEET_DpOT0_, symObjAddr: 0xF1C0, symBinAddr: 0xF9EC, symSize: 0x1A8 }
  - { offset: 0x40EAB, size: 0x8, addend: 0x0, symName: __ZN8nlohmann16json_abi_v3_12_06detail6concatINSt3__112basic_stringIcNS3_11char_traitsIcEENS3_9allocatorIcEEEEJPKcRA15_SA_S9_cEEET_DpOT0_, symObjAddr: 0xF544, symBinAddr: 0xFD70, symSize: 0xFC }
  - { offset: 0x41354, size: 0x8, addend: 0x0, symName: __ZN8nlohmann16json_abi_v3_12_06detail6concatINSt3__112basic_stringIcNS3_11char_traitsIcEENS3_9allocatorIcEEEEJRA24_KcS9_EEET_DpOT0_, symObjAddr: 0xB9A8, symBinAddr: 0xC244, symSize: 0xAC }
  - { offset: 0x4169A, size: 0x8, addend: 0x0, symName: __ZN8nlohmann16json_abi_v3_12_06detail6concatINSt3__112basic_stringIcNS3_11char_traitsIcEENS3_9allocatorIcEEEEJRA23_KcS9_EEET_DpOT0_, symObjAddr: 0xDF3C, symBinAddr: 0xE768, symSize: 0xAC }
  - { offset: 0x42266, size: 0x8, addend: 0x0, symName: __ZN8nlohmann16json_abi_v3_12_06detail6concatINSt3__112basic_stringIcNS3_11char_traitsIcEENS3_9allocatorIcEEEEJRA10_KcS9_SC_S9_EEET_DpOT0_, symObjAddr: 0xF420, symBinAddr: 0xFC4C, symSize: 0x124 }
  - { offset: 0x42B12, size: 0x8, addend: 0x0, symName: __ZN8nlohmann16json_abi_v3_12_06detail6concatINSt3__112basic_stringIcNS3_11char_traitsIcEENS3_9allocatorIcEEEEJRA51_KcPSA_EEET_DpOT0_, symObjAddr: 0x112E4, symBinAddr: 0x119C8, symSize: 0xA0 }
  - { offset: 0x42E81, size: 0x8, addend: 0x0, symName: __ZN8nlohmann16json_abi_v3_12_06detail6concatINSt3__112basic_stringIcNS3_11char_traitsIcEENS3_9allocatorIcEEEEJRA29_KcPSA_EEET_DpOT0_, symObjAddr: 0x11680, symBinAddr: 0x11C80, symSize: 0xA0 }
  - { offset: 0x43222, size: 0x8, addend: 0x0, symName: __ZN8nlohmann16json_abi_v3_12_06detail6concatINSt3__112basic_stringIcNS3_11char_traitsIcEENS3_9allocatorIcEEEEJRA30_KcPSA_EEET_DpOT0_, symObjAddr: 0x118DC, symBinAddr: 0x11DF8, symSize: 0xA0 }
  - { offset: 0x43591, size: 0x8, addend: 0x0, symName: __ZN8nlohmann16json_abi_v3_12_06detail9from_jsonINS0_10basic_jsonINSt3__13mapENS4_6vectorENS4_12basic_stringIcNS4_11char_traitsIcEENS4_9allocatorIcEEEEbxydSA_NS0_14adl_serializerENS6_IhNSA_IhEEEEvEEEEvRKT_RNSH_8string_tE, symObjAddr: 0x120D8, symBinAddr: 0x12280, symSize: 0xE0 }
  - { offset: 0x45AE3, size: 0x8, addend: 0x0, symName: __ZTVN8nlohmann16json_abi_v3_12_06detail9exceptionE, symObjAddr: 0x1B038, symBinAddr: 0x1C3F0, symSize: 0x0 }
  - { offset: 0x45AF8, size: 0x8, addend: 0x0, symName: __ZTVNSt3__117bad_function_callE, symObjAddr: 0x1B090, symBinAddr: 0x1C448, symSize: 0x0 }
  - { offset: 0x45B23, size: 0x8, addend: 0x0, symName: __ZTVN8nlohmann16json_abi_v3_12_06detail12out_of_rangeE, symObjAddr: 0x1B0B8, symBinAddr: 0x1C470, symSize: 0x0 }
  - { offset: 0x45B3D, size: 0x8, addend: 0x0, symName: __ZTVN8nlohmann16json_abi_v3_12_06detail16invalid_iteratorE, symObjAddr: 0x1B0F8, symBinAddr: 0x1C4B0, symSize: 0x0 }
  - { offset: 0x45B57, size: 0x8, addend: 0x0, symName: __ZTVN8nlohmann16json_abi_v3_12_06detail10type_errorE, symObjAddr: 0x1B138, symBinAddr: 0x1C4F0, symSize: 0x0 }
  - { offset: 0x45B80, size: 0x8, addend: 0x0, symName: __ZTVN8nlohmann16json_abi_v3_12_06detail11parse_errorE, symObjAddr: 0x1B178, symBinAddr: 0x1C530, symSize: 0x0 }
  - { offset: 0x4659B, size: 0x8, addend: 0x0, symName: __ZN7Network6FakeIP8InstanceEv, symObjAddr: 0x1440, symBinAddr: 0x1D90, symSize: 0x44 }
  - { offset: 0x465BC, size: 0x8, addend: 0x0, symName: __ZZN7Network6FakeIP8InstanceEvE8instance, symObjAddr: 0x18E10, symBinAddr: 0x20168, symSize: 0x0 }
  - { offset: 0x465EB, size: 0x8, addend: 0x0, symName: __ZN4Core6Config8InstanceEv, symObjAddr: 0x1678, symBinAddr: 0x1FC8, symSize: 0x90 }
  - { offset: 0x4660B, size: 0x8, addend: 0x0, symName: __ZZN4Core6Config8InstanceEvE8instance, symObjAddr: 0x18ED8, symBinAddr: 0x20230, symSize: 0x0 }
  - { offset: 0x47AAB, size: 0x8, addend: 0x0, symName: __ZN7Network6FakeIP17EnsureInitializedEv, symObjAddr: 0x12228, symBinAddr: 0x123D0, symSize: 0x50 }
  - { offset: 0x47D60, size: 0x8, addend: 0x0, symName: __ZN7Network6FakeIP23EnsureSharedInitializedEv, symObjAddr: 0x12E44, symBinAddr: 0x12FEC, symSize: 0x50 }
  - { offset: 0x48141, size: 0x8, addend: 0x0, symName: __ZNSt3__113unordered_mapIi16sockaddr_storageNS_4hashIiEENS_8equal_toIiEENS_9allocatorINS_4pairIKiS1_EEEEED1B9nqe210106Ev, symObjAddr: 0x0, symBinAddr: 0x950, symSize: 0x4 }
  - { offset: 0x48170, size: 0x8, addend: 0x0, symName: __ZNSt3__113unordered_mapIi16sockaddr_storageNS_4hashIiEENS_8equal_toIiEENS_9allocatorINS_4pairIKiS1_EEEEED1B9nqe210106Ev, symObjAddr: 0x0, symBinAddr: 0x950, symSize: 0x4 }
  - { offset: 0x4818C, size: 0x8, addend: 0x0, symName: __ZNSt3__113unordered_mapIi16sockaddr_storageNS_4hashIiEENS_8equal_toIiEENS_9allocatorINS_4pairIKiS1_EEEEED1B9nqe210106Ev, symObjAddr: 0x0, symBinAddr: 0x950, symSize: 0x4 }
  - { offset: 0x481AB, size: 0x8, addend: 0x0, symName: __ZNSt3__113unordered_mapIi16sockaddr_storageNS_4hashIiEENS_8equal_toIiEENS_9allocatorINS_4pairIKiS1_EEEEED1B9nqe210106Ev, symObjAddr: 0x0, symBinAddr: 0x950, symSize: 0x4 }
  - { offset: 0x481BF, size: 0x8, addend: 0x0, symName: __ZNSt3__112__hash_tableINS_17__hash_value_typeIi16sockaddr_storageEENS_22__unordered_map_hasherIiNS_4pairIKiS2_EENS_4hashIiEENS_8equal_toIiEELb1EEENS_21__unordered_map_equalIiS7_SB_S9_Lb1EEENS_9allocatorIS7_EEED2Ev, symObjAddr: 0x158EC, symBinAddr: 0x157BC, symSize: 0x48 }
  - { offset: 0x48423, size: 0x8, addend: 0x0, symName: __ZNSt3__113unordered_mapIijNS_4hashIiEENS_8equal_toIiEENS_9allocatorINS_4pairIKijEEEEED1B9nqe210106Ev, symObjAddr: 0x4, symBinAddr: 0x954, symSize: 0x4 }
  - { offset: 0x48452, size: 0x8, addend: 0x0, symName: __ZNSt3__113unordered_mapIijNS_4hashIiEENS_8equal_toIiEENS_9allocatorINS_4pairIKijEEEEED1B9nqe210106Ev, symObjAddr: 0x4, symBinAddr: 0x954, symSize: 0x4 }
  - { offset: 0x4846E, size: 0x8, addend: 0x0, symName: __ZNSt3__113unordered_mapIijNS_4hashIiEENS_8equal_toIiEENS_9allocatorINS_4pairIKijEEEEED1B9nqe210106Ev, symObjAddr: 0x4, symBinAddr: 0x954, symSize: 0x4 }
  - { offset: 0x4848D, size: 0x8, addend: 0x0, symName: __ZNSt3__113unordered_mapIijNS_4hashIiEENS_8equal_toIiEENS_9allocatorINS_4pairIKijEEEEED1B9nqe210106Ev, symObjAddr: 0x4, symBinAddr: 0x954, symSize: 0x4 }
  - { offset: 0x489F9, size: 0x8, addend: 0x0, symName: __ZN7Network6FakeIP9GetDomainEj, symObjAddr: 0x1484, symBinAddr: 0x1DD4, symSize: 0x198 }
  - { offset: 0x48F73, size: 0x8, addend: 0x0, symName: __ZN4Core6Logger3LogENS_8LogLevelERKNSt3__112basic_stringIcNS2_11char_traitsIcEENS2_9allocatorIcEEEE, symObjAddr: 0x64F8, symBinAddr: 0x6E48, symSize: 0x1A4 }
  - { offset: 0x49364, size: 0x8, addend: 0x0, symName: __ZNSt3__112basic_stringIcNS_11char_traitsIcEENS_9allocatorIcEEEC2B9nqe210106ILi0EEEPKc, symObjAddr: 0x144EC, symBinAddr: 0x14490, symSize: 0xA8 }
  - { offset: 0x495AB, size: 0x8, addend: 0x0, symName: __ZN7Network12Socks5Client7SendAllEiPKvii, symObjAddr: 0x14594, symBinAddr: 0x14538, symSize: 0x338 }
  - { offset: 0x495BC, size: 0x8, addend: 0x0, symName: __ZN7Network12Socks5Client9HandshakeEiRKNSt3__112basic_stringIcNS1_11char_traitsIcEENS1_9allocatorIcEEEEt, symObjAddr: 0x1764, symBinAddr: 0x20B4, symSize: 0xAC8 }
  - { offset: 0x4CB92, size: 0x8, addend: 0x0, symName: __ZNSt3__112__hash_tableINS_17__hash_value_typeIi16sockaddr_storageEENS_22__unordered_map_hasherIiNS_4pairIKiS2_EENS_4hashIiEENS_8equal_toIiEELb1EEENS_21__unordered_map_equalIiS7_SB_S9_Lb1EEENS_9allocatorIS7_EEE25__emplace_unique_key_argsIiJRKNS_21piecewise_construct_tENS_5tupleIJRS6_EEENSM_IJEEEEEENS5_INS_15__hash_iteratorIPNS_11__hash_nodeIS3_PvEEEEbEERKT_DpOT0_, symObjAddr: 0x1597C, symBinAddr: 0x15804, symSize: 0x228 }
  - { offset: 0x4D234, size: 0x8, addend: 0x0, symName: __ZNSt3__112__hash_tableINS_17__hash_value_typeIijEENS_22__unordered_map_hasherIiNS_4pairIKijEENS_4hashIiEENS_8equal_toIiEELb1EEENS_21__unordered_map_equalIiS6_SA_S8_Lb1EEENS_9allocatorIS6_EEE25__emplace_unique_key_argsIiJRKNS_21piecewise_construct_tENS_5tupleIJRS5_EEENSL_IJEEEEEENS4_INS_15__hash_iteratorIPNS_11__hash_nodeIS2_PvEEEEbEERKT_DpOT0_, symObjAddr: 0x15DA8, symBinAddr: 0x15A2C, symSize: 0x204 }
  - { offset: 0x4D8DD, size: 0x8, addend: 0x0, symName: '__ZZ10my_connectiPK8sockaddrjENK3$_0clEv', symObjAddr: 0x13A4, symBinAddr: 0x1CF4, symSize: 0x9C }
  - { offset: 0x4DC2B, size: 0x8, addend: 0x0, symName: __ZN4Core6Logger4InitERKNSt3__112basic_stringIcNS1_11char_traitsIcEENS1_9allocatorIcEEEE, symObjAddr: 0x2C3C, symBinAddr: 0x358C, symSize: 0x208 }
  - { offset: 0x4E31C, size: 0x8, addend: 0x0, symName: __ZN4Core6Config4LoadERKNSt3__112basic_stringIcNS1_11char_traitsIcEENS1_9allocatorIcEEEE, symObjAddr: 0x2E44, symBinAddr: 0x3794, symSize: 0x10B4 }
  - { offset: 0x53264, size: 0x8, addend: 0x0, symName: __ZN7Network6FakeIP8InstanceEv.cold.1, symObjAddr: 0x16620, symBinAddr: 0x15FB8, symSize: 0xA0 }
  - { offset: 0x5356A, size: 0x8, addend: 0x0, symName: __ZNKSt3__112__hash_tableINS_17__hash_value_typeIjNS_12basic_stringIcNS_11char_traitsIcEENS_9allocatorIcEEEEEENS_22__unordered_map_hasherIjNS_4pairIKjS7_EENS_4hashIjEENS_8equal_toIjEELb1EEENS_21__unordered_map_equalIjSC_SG_SE_Lb1EEENS5_ISC_EEE4findIjEENS_21__hash_const_iteratorIPNS_11__hash_nodeIS8_PvEEEERKT_, symObjAddr: 0x1290C, symBinAddr: 0x12AB4, symSize: 0xAC }
  - { offset: 0x535B3, size: 0x8, addend: 0x0, symName: __ZNKSt3__112__hash_tableINS_17__hash_value_typeIjNS_12basic_stringIcNS_11char_traitsIcEENS_9allocatorIcEEEEEENS_22__unordered_map_hasherIjNS_4pairIKjS7_EENS_4hashIjEENS_8equal_toIjEELb1EEENS_21__unordered_map_equalIjSC_SG_SE_Lb1EEENS5_ISC_EEE4findIjEENS_21__hash_const_iteratorIPNS_11__hash_nodeIS8_PvEEEERKT_, symObjAddr: 0x1290C, symBinAddr: 0x12AB4, symSize: 0xAC }
  - { offset: 0x535CF, size: 0x8, addend: 0x0, symName: __ZNKSt3__112__hash_tableINS_17__hash_value_typeIjNS_12basic_stringIcNS_11char_traitsIcEENS_9allocatorIcEEEEEENS_22__unordered_map_hasherIjNS_4pairIKjS7_EENS_4hashIjEENS_8equal_toIjEELb1EEENS_21__unordered_map_equalIjSC_SG_SE_Lb1EEENS5_ISC_EEE4findIjEENS_21__hash_const_iteratorIPNS_11__hash_nodeIS8_PvEEEERKT_, symObjAddr: 0x1290C, symBinAddr: 0x12AB4, symSize: 0xAC }
  - { offset: 0x53739, size: 0x8, addend: 0x0, symName: __ZNSt3__112__hash_tableINS_17__hash_value_typeIjNS_12basic_stringIcNS_11char_traitsIcEENS_9allocatorIcEEEEEENS_22__unordered_map_hasherIjNS_4pairIKjS7_EENS_4hashIjEENS_8equal_toIjEELb1EEENS_21__unordered_map_equalIjSC_SG_SE_Lb1EEENS5_ISC_EEE25__emplace_unique_key_argsIjJRKNS_21piecewise_construct_tENS_5tupleIJRSB_EEENSQ_IJEEEEEENSA_INS_15__hash_iteratorIPNS_11__hash_nodeIS8_PvEEEEbEERKT_DpOT0_, symObjAddr: 0x129B8, symBinAddr: 0x12B60, symSize: 0x238 }
  - { offset: 0x53DED, size: 0x8, addend: 0x0, symName: __ZN7Network6FakeIP9SharedGetEj, symObjAddr: 0x127C4, symBinAddr: 0x1296C, symSize: 0x148 }
  - { offset: 0x5409D, size: 0x8, addend: 0x0, symName: __ZNSt3__112__hash_tableINS_17__hash_value_typeINS_12basic_stringIcNS_11char_traitsIcEENS_9allocatorIcEEEEjEENS_22__unordered_map_hasherIS7_NS_4pairIKS7_jEENS_4hashIS7_EENS_8equal_toIS7_EELb1EEENS_21__unordered_map_equalIS7_SC_SG_SE_Lb1EEENS5_ISC_EEE25__emplace_unique_key_argsIS7_JRKNS_21piecewise_construct_tENS_5tupleIJRSB_EEENSQ_IJEEEEEENSA_INS_15__hash_iteratorIPNS_11__hash_nodeIS8_PvEEEEbEERKT_DpOT0_, symObjAddr: 0x1375C, symBinAddr: 0x13904, symSize: 0x250 }
  - { offset: 0x54539, size: 0x8, addend: 0x0, symName: __ZNSt3__112basic_stringIcNS_11char_traitsIcEENS_9allocatorIcEEE25__init_copy_ctor_externalEPKcm, symObjAddr: 0x5B3C, symBinAddr: 0x648C, symSize: 0x84 }
  - { offset: 0x546F0, size: 0x8, addend: 0x0, symName: __ZNSt3__16vectorINS_12basic_stringIcNS_11char_traitsIcEENS_9allocatorIcEEEENS4_IS6_EEE9push_backB9nqe210106ERKS6_, symObjAddr: 0x5BC0, symBinAddr: 0x6510, symSize: 0x3C }
  - { offset: 0x54742, size: 0x8, addend: 0x0, symName: __ZN4Core6ConfigC2Ev, symObjAddr: 0x141C8, symBinAddr: 0x1416C, symSize: 0xC8 }
  - { offset: 0x54D6C, size: 0x8, addend: 0x0, symName: __ZN7Network12Socks5Client7SendAllEiPKvii, symObjAddr: 0x14594, symBinAddr: 0x14538, symSize: 0x338 }
  - { offset: 0x55E79, size: 0x8, addend: 0x0, symName: __ZN7Network12Socks5Client9ReadExactEiPhii, symObjAddr: 0x148CC, symBinAddr: 0x14870, symSize: 0x37C }
  - { offset: 0x573F8, size: 0x8, addend: 0x0, symName: __ZN7Network12Socks5Client9WaitForFdEibi, symObjAddr: 0x14D1C, symBinAddr: 0x14BEC, symSize: 0x24C }
  - { offset: 0x57403, size: 0x8, addend: 0x0, symName: __ZNSt3__16vectorIhNS_9allocatorIhEEE18__insert_with_sizeB9nqe210106IPhS5_EENS_11__wrap_iterIS5_EENS6_IPKhEET_T0_l, symObjAddr: 0x14F68, symBinAddr: 0x14E38, symSize: 0x218 }
  - { offset: 0x57FD1, size: 0x8, addend: 0x0, symName: __ZNSt3__16vectorIhNS_9allocatorIhEEEC2B9nqe210106Em, symObjAddr: 0x15180, symBinAddr: 0x15050, symSize: 0x70 }
  - { offset: 0x57FEE, size: 0x8, addend: 0x0, symName: __ZNSt3__16vectorIhNS_9allocatorIhEEEC2B9nqe210106Em, symObjAddr: 0x15180, symBinAddr: 0x15050, symSize: 0x70 }
  - { offset: 0x58578, size: 0x8, addend: 0x0, symName: __ZNKSt3__112basic_stringIcNS_11char_traitsIcEENS_9allocatorIcEEE4findB9nqe210106EPKcm, symObjAddr: 0x151F0, symBinAddr: 0x150C0, symSize: 0xC0 }
  - { offset: 0x587AE, size: 0x8, addend: 0x0, symName: __ZNKSt3__112basic_stringIcNS_11char_traitsIcEENS_9allocatorIcEEE13find_first_ofB9nqe210106EPKcm, symObjAddr: 0x152B0, symBinAddr: 0x15180, symSize: 0x98 }
  - { offset: 0x58962, size: 0x8, addend: 0x0, symName: __ZN7Network6FakeIP5AllocERKNSt3__112basic_stringIcNS1_11char_traitsIcEENS1_9allocatorIcEEEE, symObjAddr: 0x2894, symBinAddr: 0x31E4, symSize: 0x188 }
  - { offset: 0x58D6C, size: 0x8, addend: 0x0, symName: __ZNKSt3__112basic_stringIcNS_11char_traitsIcEENS_9allocatorIcEEE5rfindB9nqe210106EPKcm, symObjAddr: 0x15348, symBinAddr: 0x15218, symSize: 0xEC }
  - { offset: 0x58FA4, size: 0x8, addend: 0x0, symName: '__ZZ14my_getaddrinfoPKcS0_PK8addrinfoPPS1_ENK3$_1clEv', symObjAddr: 0x27F8, symBinAddr: 0x3148, symSize: 0x9C }
  - { offset: 0x59390, size: 0x8, addend: 0x0, symName: __ZNKSt3__112__hash_tableINS_17__hash_value_typeINS_12basic_stringIcNS_11char_traitsIcEENS_9allocatorIcEEEEjEENS_22__unordered_map_hasherIS7_NS_4pairIKS7_jEENS_4hashIS7_EENS_8equal_toIS7_EELb1EEENS_21__unordered_map_equalIS7_SC_SG_SE_Lb1EEENS5_ISC_EEE4findIS7_EENS_21__hash_const_iteratorIPNS_11__hash_nodeIS8_PvEEEERKT_, symObjAddr: 0x1557C, symBinAddr: 0x1544C, symSize: 0xEC }
  - { offset: 0x5958E, size: 0x8, addend: 0x0, symName: __ZNSt3__112__hash_tableINS_17__hash_value_typeINS_12basic_stringIcNS_11char_traitsIcEENS_9allocatorIcEEEEjEENS_22__unordered_map_hasherIS7_NS_4pairIKS7_jEENS_4hashIS7_EENS_8equal_toIS7_EELb1EEENS_21__unordered_map_equalIS7_SC_SG_SE_Lb1EEENS5_ISC_EEE14__erase_uniqueIS7_EEmRKT_, symObjAddr: 0x15668, symBinAddr: 0x15538, symSize: 0x34 }
  - { offset: 0x59615, size: 0x8, addend: 0x0, symName: __ZN7Network6FakeIP9SharedPutEjRKNSt3__112basic_stringIcNS1_11char_traitsIcEENS1_9allocatorIcEEEE, symObjAddr: 0x15434, symBinAddr: 0x15304, symSize: 0x148 }
  - { offset: 0x59688, size: 0x8, addend: 0x0, symName: __ZN7Network6FakeIP9SharedPutEjRKNSt3__112basic_stringIcNS1_11char_traitsIcEENS1_9allocatorIcEEEE, symObjAddr: 0x15434, symBinAddr: 0x15304, symSize: 0x148 }
  - { offset: 0x596A3, size: 0x8, addend: 0x0, symName: __ZN7Network6FakeIP9SharedPutEjRKNSt3__112basic_stringIcNS1_11char_traitsIcEENS1_9allocatorIcEEEE, symObjAddr: 0x15434, symBinAddr: 0x15304, symSize: 0x148 }
  - { offset: 0x596BF, size: 0x8, addend: 0x0, symName: __ZN7Network6FakeIP9SharedPutEjRKNSt3__112basic_stringIcNS1_11char_traitsIcEENS1_9allocatorIcEEEE, symObjAddr: 0x15434, symBinAddr: 0x15304, symSize: 0x148 }
  - { offset: 0x59806, size: 0x8, addend: 0x0, symName: __Z14my_getpeernameiP8sockaddrPj, symObjAddr: 0x2A1C, symBinAddr: 0x336C, symSize: 0x110 }
  - { offset: 0x599EF, size: 0x8, addend: 0x0, symName: __ZNSt3__112__hash_tableINS_17__hash_value_typeIi16sockaddr_storageEENS_22__unordered_map_hasherIiNS_4pairIKiS2_EENS_4hashIiEENS_8equal_toIiEELb1EEENS_21__unordered_map_equalIiS7_SB_S9_Lb1EEENS_9allocatorIS7_EEE4findIiEENS_15__hash_iteratorIPNS_11__hash_nodeIS3_PvEEEERKT_, symObjAddr: 0x161B0, symBinAddr: 0x15C30, symSize: 0xA8 }
  - { offset: 0x59A38, size: 0x8, addend: 0x0, symName: __ZNSt3__112__hash_tableINS_17__hash_value_typeIi16sockaddr_storageEENS_22__unordered_map_hasherIiNS_4pairIKiS2_EENS_4hashIiEENS_8equal_toIiEELb1EEENS_21__unordered_map_equalIiS7_SB_S9_Lb1EEENS_9allocatorIS7_EEE4findIiEENS_15__hash_iteratorIPNS_11__hash_nodeIS3_PvEEEERKT_, symObjAddr: 0x161B0, symBinAddr: 0x15C30, symSize: 0xA8 }
  - { offset: 0x59A54, size: 0x8, addend: 0x0, symName: __ZNSt3__112__hash_tableINS_17__hash_value_typeIi16sockaddr_storageEENS_22__unordered_map_hasherIiNS_4pairIKiS2_EENS_4hashIiEENS_8equal_toIiEELb1EEENS_21__unordered_map_equalIiS7_SB_S9_Lb1EEENS_9allocatorIS7_EEE4findIiEENS_15__hash_iteratorIPNS_11__hash_nodeIS3_PvEEEERKT_, symObjAddr: 0x161B0, symBinAddr: 0x15C30, symSize: 0xA8 }
  - { offset: 0x59C0E, size: 0x8, addend: 0x0, symName: __Z8my_closei, symObjAddr: 0x2B2C, symBinAddr: 0x347C, symSize: 0x7C }
  - { offset: 0x59D7C, size: 0x8, addend: 0x0, symName: __ZNSt3__112__hash_tableINS_17__hash_value_typeIi16sockaddr_storageEENS_22__unordered_map_hasherIiNS_4pairIKiS2_EENS_4hashIiEENS_8equal_toIiEELb1EEENS_21__unordered_map_equalIiS7_SB_S9_Lb1EEENS_9allocatorIS7_EEE14__erase_uniqueIiEEmRKT_, symObjAddr: 0x16258, symBinAddr: 0x15CD8, symSize: 0x34 }
  - { offset: 0x59E80, size: 0x8, addend: 0x0, symName: __Z10LoaderInitv, symObjAddr: 0x2BA8, symBinAddr: 0x34F8, symSize: 0x94 }
  - { offset: 0x5A23F, size: 0x8, addend: 0x0, symName: __ZN4Core6Logger18SetLevelFromStringERKNSt3__112basic_stringIcNS1_11char_traitsIcEENS1_9allocatorIcEEEE, symObjAddr: 0x46B0, symBinAddr: 0x5000, symSize: 0x268 }
  - { offset: 0x5AAF2, size: 0x8, addend: 0x0, symName: __ZNSt3__112basic_stringIcNS_11char_traitsIcEENS_9allocatorIcEEE17__assign_externalEPKc, symObjAddr: 0x11044, symBinAddr: 0x117B0, symSize: 0x34 }
  - { offset: 0x5BA39, size: 0x8, addend: 0x0, symName: __ZN4Core6Config10GetHomeDirEv, symObjAddr: 0x4078, symBinAddr: 0x49C8, symSize: 0x50 }
  - { offset: 0x5BABA, size: 0x8, addend: 0x0, symName: __ZNSt3__16vectorINS_12basic_stringIcNS_11char_traitsIcEENS_9allocatorIcEEEENS4_IS6_EEE9push_backB9nqe210106ERKS6_, symObjAddr: 0x5BC0, symBinAddr: 0x6510, symSize: 0x3C }
  - { offset: 0x5BB3E, size: 0x8, addend: 0x0, symName: __ZN4Core6Config16GetExecutableDirEv, symObjAddr: 0x40C8, symBinAddr: 0x4A18, symSize: 0x150 }
  - { offset: 0x5C029, size: 0x8, addend: 0x0, symName: __ZN8nlohmann16json_abi_v3_12_010basic_jsonINSt3__13mapENS2_6vectorENS2_12basic_stringIcNS2_11char_traitsIcEENS2_9allocatorIcEEEEbxydS8_NS0_14adl_serializerENS4_IhNS8_IhEEEEvE5parseIRNS2_14basic_ifstreamIcS7_EEEESE_OT_NS2_8functionIFbiNS0_6detail13parse_event_tERSE_EEEbbb, symObjAddr: 0x43D0, symBinAddr: 0x4D20, symSize: 0x1B4 }
  - { offset: 0x5C673, size: 0x8, addend: 0x0, symName: __ZNSt3__119basic_ostringstreamIcNS_11char_traitsIcEENS_9allocatorIcEEEC1B9nqe210106Ev, symObjAddr: 0x4284, symBinAddr: 0x4BD4, symSize: 0xC4 }
  - { offset: 0x5C799, size: 0x8, addend: 0x0, symName: __ZNK8nlohmann16json_abi_v3_12_010basic_jsonINSt3__13mapENS2_6vectorENS2_12basic_stringIcNS2_11char_traitsIcEENS2_9allocatorIcEEEEbxydS8_NS0_14adl_serializerENS4_IhNS8_IhEEEEvE5valueIRA5_KcRA10_SG_SA_Li0EEET1_OT0_OT_, symObjAddr: 0x4584, symBinAddr: 0x4ED4, symSize: 0x12C }
  - { offset: 0x5CBED, size: 0x8, addend: 0x0, symName: __ZN8nlohmann16json_abi_v3_12_010basic_jsonINSt3__13mapENS2_6vectorENS2_12basic_stringIcNS2_11char_traitsIcEENS2_9allocatorIcEEEEbxydS8_NS0_14adl_serializerENS4_IhNS8_IhEEEEvEixIKcEERSE_PT_, symObjAddr: 0x4918, symBinAddr: 0x5268, symSize: 0x6C }
  - { offset: 0x5CE65, size: 0x8, addend: 0x0, symName: __ZNK8nlohmann16json_abi_v3_12_010basic_jsonINSt3__13mapENS2_6vectorENS2_12basic_stringIcNS2_11char_traitsIcEENS2_9allocatorIcEEEEbxydS8_NS0_14adl_serializerENS4_IhNS8_IhEEEEvE5valueIRA10_KcRA5_SG_SA_Li0EEET1_OT0_OT_, symObjAddr: 0x4984, symBinAddr: 0x52D4, symSize: 0x12C }
  - { offset: 0x5D1D9, size: 0x8, addend: 0x0, symName: __ZNK8nlohmann16json_abi_v3_12_010basic_jsonINSt3__13mapENS2_6vectorENS2_12basic_stringIcNS2_11char_traitsIcEENS2_9allocatorIcEEEEbxydS8_NS0_14adl_serializerENS4_IhNS8_IhEEEEvE5valueIiRA5_KciLi0EEET1_OT0_OT_, symObjAddr: 0x4AB0, symBinAddr: 0x5400, symSize: 0x128 }
  - { offset: 0x5D58A, size: 0x8, addend: 0x0, symName: __ZNK8nlohmann16json_abi_v3_12_010basic_jsonINSt3__13mapENS2_6vectorENS2_12basic_stringIcNS2_11char_traitsIcEENS2_9allocatorIcEEEEbxydS8_NS0_14adl_serializerENS4_IhNS8_IhEEEEvE5valueIRA7_KcRA5_SG_SA_Li0EEET1_OT0_OT_, symObjAddr: 0x4BD8, symBinAddr: 0x5528, symSize: 0x12C }
  - { offset: 0x5D9E4, size: 0x8, addend: 0x0, symName: __ZNK8nlohmann16json_abi_v3_12_010basic_jsonINSt3__13mapENS2_6vectorENS2_12basic_stringIcNS2_11char_traitsIcEENS2_9allocatorIcEEEEbxydS8_NS0_14adl_serializerENS4_IhNS8_IhEEEEvE5valueIbRA8_KcbLi0EEET1_OT0_OT_, symObjAddr: 0x4D04, symBinAddr: 0x5654, symSize: 0x120 }
  - { offset: 0x5DD0F, size: 0x8, addend: 0x0, symName: __ZNK8nlohmann16json_abi_v3_12_010basic_jsonINSt3__13mapENS2_6vectorENS2_12basic_stringIcNS2_11char_traitsIcEENS2_9allocatorIcEEEEbxydS8_NS0_14adl_serializerENS4_IhNS8_IhEEEEvE5valueIRA14_KcRA5_SG_SA_Li0EEET1_OT0_OT_, symObjAddr: 0x4E24, symBinAddr: 0x5774, symSize: 0x12C }
  - { offset: 0x5E083, size: 0x8, addend: 0x0, symName: __ZNK8nlohmann16json_abi_v3_12_010basic_jsonINSt3__13mapENS2_6vectorENS2_12basic_stringIcNS2_11char_traitsIcEENS2_9allocatorIcEEEEbxydS8_NS0_14adl_serializerENS4_IhNS8_IhEEEEvE5valueIiRA8_KciLi0EEET1_OT0_OT_, symObjAddr: 0x4F50, symBinAddr: 0x58A0, symSize: 0x128 }
  - { offset: 0x5E5E9, size: 0x8, addend: 0x0, symName: __ZN8nlohmann16json_abi_v3_12_06detail9iter_implINS0_10basic_jsonINSt3__13mapENS4_6vectorENS4_12basic_stringIcNS4_11char_traitsIcEENS4_9allocatorIcEEEEbxydSA_NS0_14adl_serializerENS6_IhNSA_IhEEEEvEEE9set_beginEv, symObjAddr: 0x11A8C, symBinAddr: 0x11E98, symSize: 0x88 }
  - { offset: 0x5E6BC, size: 0x8, addend: 0x0, symName: __ZN8nlohmann16json_abi_v3_12_06detail9iter_implINS0_10basic_jsonINSt3__13mapENS4_6vectorENS4_12basic_stringIcNS4_11char_traitsIcEENS4_9allocatorIcEEEEbxydSA_NS0_14adl_serializerENS6_IhNSA_IhEEEEvEEE7set_endEv, symObjAddr: 0x11B5C, symBinAddr: 0x11F68, symSize: 0x7C }
  - { offset: 0x5E78D, size: 0x8, addend: 0x0, symName: __ZNK8nlohmann16json_abi_v3_12_06detail9iter_implINS0_10basic_jsonINSt3__13mapENS4_6vectorENS4_12basic_stringIcNS4_11char_traitsIcEENS4_9allocatorIcEEEEbxydSA_NS0_14adl_serializerENS6_IhNSA_IhEEEEvEEEeqISH_LDn0EEEbRKT_, symObjAddr: 0x11BD8, symBinAddr: 0x11FE4, symSize: 0x110 }
  - { offset: 0x5E9D6, size: 0x8, addend: 0x0, symName: __ZNK8nlohmann16json_abi_v3_12_06detail9iter_implINS0_10basic_jsonINSt3__13mapENS4_6vectorENS4_12basic_stringIcNS4_11char_traitsIcEENS4_9allocatorIcEEEEbxydSA_NS0_14adl_serializerENS6_IhNSA_IhEEEEvEEEdeEv, symObjAddr: 0x5078, symBinAddr: 0x59C8, symSize: 0x174 }
  - { offset: 0x5ECB2, size: 0x8, addend: 0x0, symName: __ZNSt3__16vectorItNS_9allocatorItEEE9push_backB9nqe210106EOt, symObjAddr: 0x51EC, symBinAddr: 0x5B3C, symSize: 0xBC }
  - { offset: 0x5F00F, size: 0x8, addend: 0x0, symName: __ZN8nlohmann16json_abi_v3_12_06detail9iter_implINS0_10basic_jsonINSt3__13mapENS4_6vectorENS4_12basic_stringIcNS4_11char_traitsIcEENS4_9allocatorIcEEEEbxydSA_NS0_14adl_serializerENS6_IhNSA_IhEEEEvEEEppEv, symObjAddr: 0x52A8, symBinAddr: 0x5BF8, symSize: 0x84 }
  - { offset: 0x5F01A, size: 0x8, addend: 0x0, symName: __ZN8nlohmann16json_abi_v3_12_06detail9iter_implINS0_10basic_jsonINSt3__13mapENS4_6vectorENS4_12basic_stringIcNS4_11char_traitsIcEENS4_9allocatorIcEEEEbxydSA_NS0_14adl_serializerENS6_IhNSA_IhEEEEvEEEppEv, symObjAddr: 0x52A8, symBinAddr: 0x5BF8, symSize: 0x84 }
  - { offset: 0x5F1C2, size: 0x8, addend: 0x0, symName: __ZNK8nlohmann16json_abi_v3_12_010basic_jsonINSt3__13mapENS2_6vectorENS2_12basic_stringIcNS2_11char_traitsIcEENS2_9allocatorIcEEEEbxydS8_NS0_14adl_serializerENS4_IhNS8_IhEEEEvE5valueIRA7_KcRA9_SG_SA_Li0EEET1_OT0_OT_, symObjAddr: 0x532C, symBinAddr: 0x5C7C, symSize: 0x12C }
  - { offset: 0x5F1CD, size: 0x8, addend: 0x0, symName: __ZNSt3__112basic_stringIcNS_11char_traitsIcEENS_9allocatorIcEEEC2B9nqe210106INS_17basic_string_viewIcS2_EELi0EEERKT_RKS4_, symObjAddr: 0x66BC, symBinAddr: 0x700C, symSize: 0xA0 }
  - { offset: 0x5F3EC, size: 0x8, addend: 0x0, symName: __ZN8nlohmann16json_abi_v3_12_010basic_jsonINSt3__13mapENS2_6vectorENS2_12basic_stringIcNS2_11char_traitsIcEENS2_9allocatorIcEEEEbxydS8_NS0_14adl_serializerENS4_IhNS8_IhEEEEvE6parserINS0_6detail20input_stream_adapterEEENSG_6parserISE_T_EESJ_NS2_8functionIFbiNSG_13parse_event_tERSE_EEEbbb, symObjAddr: 0x675C, symBinAddr: 0x70AC, symSize: 0xF4 }
  - { offset: 0x5F41D, size: 0x8, addend: 0x0, symName: __ZNK8nlohmann16json_abi_v3_12_010basic_jsonINSt3__13mapENS2_6vectorENS2_12basic_stringIcNS2_11char_traitsIcEENS2_9allocatorIcEEEEbxydS8_NS0_14adl_serializerENS4_IhNS8_IhEEEEvE5valueIRA7_KcRA9_SG_SA_Li0EEET1_OT0_OT_, symObjAddr: 0x532C, symBinAddr: 0x5C7C, symSize: 0x12C }
  - { offset: 0x5F791, size: 0x8, addend: 0x0, symName: __ZNK8nlohmann16json_abi_v3_12_010basic_jsonINSt3__13mapENS2_6vectorENS2_12basic_stringIcNS2_11char_traitsIcEENS2_9allocatorIcEEEEbxydS8_NS0_14adl_serializerENS4_IhNS8_IhEEEEvE5valueIRA6_KcRA10_SG_SA_Li0EEET1_OT0_OT_, symObjAddr: 0x5458, symBinAddr: 0x5DA8, symSize: 0x12C }
  - { offset: 0x5FB05, size: 0x8, addend: 0x0, symName: __ZNK8nlohmann16json_abi_v3_12_010basic_jsonINSt3__13mapENS2_6vectorENS2_12basic_stringIcNS2_11char_traitsIcEENS2_9allocatorIcEEEEbxydS8_NS0_14adl_serializerENS4_IhNS8_IhEEEEvE5valueIRA6_KcRA9_SG_SA_Li0EEET1_OT0_OT_, symObjAddr: 0x5584, symBinAddr: 0x5ED4, symSize: 0x12C }
  - { offset: 0x5FE90, size: 0x8, addend: 0x0, symName: __ZNK8nlohmann16json_abi_v3_12_010basic_jsonINSt3__13mapENS2_6vectorENS2_12basic_stringIcNS2_11char_traitsIcEENS2_9allocatorIcEEEEbxydS8_NS0_14adl_serializerENS4_IhNS8_IhEEEEvE5valueIbRA16_KcbLi0EEET1_OT0_OT_, symObjAddr: 0x56B0, symBinAddr: 0x6000, symSize: 0x120 }
  - { offset: 0x6029B, size: 0x8, addend: 0x0, symName: __ZNSt3__16vectorINS_12basic_stringIcNS_11char_traitsIcEENS_9allocatorIcEEEENS4_IS6_EEE5clearB9nqe210106Ev, symObjAddr: 0x57D0, symBinAddr: 0x6120, symSize: 0x50 }
  - { offset: 0x6041E, size: 0x8, addend: 0x0, symName: __ZNK8nlohmann16json_abi_v3_12_010basic_jsonINSt3__13mapENS2_6vectorENS2_12basic_stringIcNS2_11char_traitsIcEENS2_9allocatorIcEEEEbxydS8_NS0_14adl_serializerENS4_IhNS8_IhEEEEvE8get_implISA_Li0EEET_NS0_6detail12priority_tagILj0EEE, symObjAddr: 0x12090, symBinAddr: 0x12238, symSize: 0x48 }
  - { offset: 0x605E0, size: 0x8, addend: 0x0, symName: __ZNSt3__16vectorINS_12basic_stringIcNS_11char_traitsIcEENS_9allocatorIcEEEENS4_IS6_EEE9push_backB9nqe210106EOS6_, symObjAddr: 0x5820, symBinAddr: 0x6170, symSize: 0x12C }
  - { offset: 0x609F6, size: 0x8, addend: 0x0, symName: ___clang_call_terminate, symObjAddr: 0x594C, symBinAddr: 0x629C, symSize: 0x10 }
  - { offset: 0x60A01, size: 0x8, addend: 0x0, symName: __ZNK8nlohmann16json_abi_v3_12_010basic_jsonINSt3__13mapENS2_6vectorENS2_12basic_stringIcNS2_11char_traitsIcEENS2_9allocatorIcEEEEbxydS8_NS0_14adl_serializerENS4_IhNS8_IhEEEEvE16assert_invariantEb, symObjAddr: 0x6DB4, symBinAddr: 0x7704, symSize: 0xB4 }
  - { offset: 0x60A47, size: 0x8, addend: 0x0, symName: __ZN8nlohmann16json_abi_v3_12_010basic_jsonINSt3__13mapENS2_6vectorENS2_12basic_stringIcNS2_11char_traitsIcEENS2_9allocatorIcEEEEbxydS8_NS0_14adl_serializerENS4_IhNS8_IhEEEEvE4dataD2Ev, symObjAddr: 0xCF00, symBinAddr: 0xD72C, symSize: 0x2C }
  - { offset: 0x60A84, size: 0x8, addend: 0x0, symName: __ZNSt3__16vectorINS_12basic_stringIcNS_11char_traitsIcEENS_9allocatorIcEEEENS4_IS6_EEE16__destroy_vectorclB9nqe210106Ev, symObjAddr: 0x121B8, symBinAddr: 0x12360, symSize: 0x40 }
  - { offset: 0x60B15, size: 0x8, addend: 0x0, symName: __ZNSt3__119basic_ostringstreamIcNS_11char_traitsIcEENS_9allocatorIcEEED1Ev, symObjAddr: 0x4348, symBinAddr: 0x4C98, symSize: 0x88 }
  - { offset: 0x60CAA, size: 0x8, addend: 0x0, symName: __ZNSt3__114basic_ifstreamIcNS_11char_traitsIcEEED1Ev, symObjAddr: 0x595C, symBinAddr: 0x62AC, symSize: 0x58 }
  - { offset: 0x60D70, size: 0x8, addend: 0x0, symName: __ZNKSt3__112basic_stringIcNS_11char_traitsIcEENS_9allocatorIcEEE5rfindB9nqe210106ERKS5_m, symObjAddr: 0x59B4, symBinAddr: 0x6304, symSize: 0xD8 }
  - { offset: 0x60DBB, size: 0x8, addend: 0x0, symName: __ZNKSt3__112basic_stringIcNS_11char_traitsIcEENS_9allocatorIcEEE5rfindB9nqe210106ERKS5_m, symObjAddr: 0x59B4, symBinAddr: 0x6304, symSize: 0xD8 }
  - { offset: 0x60DD7, size: 0x8, addend: 0x0, symName: __ZNKSt3__112basic_stringIcNS_11char_traitsIcEENS_9allocatorIcEEE5rfindB9nqe210106ERKS5_m, symObjAddr: 0x59B4, symBinAddr: 0x6304, symSize: 0xD8 }
  - { offset: 0x60DF3, size: 0x8, addend: 0x0, symName: __ZNKSt3__112basic_stringIcNS_11char_traitsIcEENS_9allocatorIcEEE5rfindB9nqe210106ERKS5_m, symObjAddr: 0x59B4, symBinAddr: 0x6304, symSize: 0xD8 }
  - { offset: 0x611E3, size: 0x8, addend: 0x0, symName: __ZNSt3__115basic_stringbufIcNS_11char_traitsIcEENS_9allocatorIcEEEC2B9nqe210106Ej, symObjAddr: 0x600C, symBinAddr: 0x695C, symSize: 0xA0 }
  - { offset: 0x615DE, size: 0x8, addend: 0x0, symName: __ZNSt3__110__function12__value_funcIFbiN8nlohmann16json_abi_v3_12_06detail13parse_event_tERNS3_10basic_jsonINS_3mapENS_6vectorENS_12basic_stringIcNS_11char_traitsIcEENS_9allocatorIcEEEEbxydSC_NS3_14adl_serializerENS8_IhNSC_IhEEEEvEEEEC2B9nqe210106EOSL_, symObjAddr: 0x8430, symBinAddr: 0x8CE0, symSize: 0x60 }
  - { offset: 0x6162C, size: 0x8, addend: 0x0, symName: __ZN8nlohmann16json_abi_v3_12_010basic_jsonINSt3__13mapENS2_6vectorENS2_12basic_stringIcNS2_11char_traitsIcEENS2_9allocatorIcEEEEbxydS8_NS0_14adl_serializerENS4_IhNS8_IhEEEEvE6parserINS0_6detail20input_stream_adapterEEENSG_6parserISE_T_EESJ_NS2_8functionIFbiNSG_13parse_event_tERSE_EEEbbb, symObjAddr: 0x675C, symBinAddr: 0x70AC, symSize: 0xF4 }
  - { offset: 0x618C6, size: 0x8, addend: 0x0, symName: __ZN8nlohmann16json_abi_v3_12_06detail6parserINS0_10basic_jsonINSt3__13mapENS4_6vectorENS4_12basic_stringIcNS4_11char_traitsIcEENS4_9allocatorIcEEEEbxydSA_NS0_14adl_serializerENS6_IhNSA_IhEEEEvEENS1_20input_stream_adapterEE5parseEbRSG_, symObjAddr: 0x6850, symBinAddr: 0x71A0, symSize: 0x514 }
  - { offset: 0x6345E, size: 0x8, addend: 0x0, symName: __ZN8nlohmann16json_abi_v3_12_06detail5lexerINS0_10basic_jsonINSt3__13mapENS4_6vectorENS4_12basic_stringIcNS4_11char_traitsIcEENS4_9allocatorIcEEEEbxydSA_NS0_14adl_serializerENS6_IhNSA_IhEEEEvEENS1_20input_stream_adapterEED2Ev, symObjAddr: 0x83F0, symBinAddr: 0x8CA0, symSize: 0x40 }
  - { offset: 0x636B5, size: 0x8, addend: 0x0, symName: __ZN8nlohmann16json_abi_v3_12_06detail20input_stream_adapterD2Ev, symObjAddr: 0x1091C, symBinAddr: 0x11088, symSize: 0x44 }
  - { offset: 0x6373B, size: 0x8, addend: 0x0, symName: __ZN8nlohmann16json_abi_v3_12_06detail6parserINS0_10basic_jsonINSt3__13mapENS4_6vectorENS4_12basic_stringIcNS4_11char_traitsIcEENS4_9allocatorIcEEEEbxydSA_NS0_14adl_serializerENS6_IhNSA_IhEEEEvEENS1_20input_stream_adapterEED1Ev, symObjAddr: 0x6D64, symBinAddr: 0x76B4, symSize: 0x50 }
  - { offset: 0x638B9, size: 0x8, addend: 0x0, symName: __ZNK8nlohmann16json_abi_v3_12_010basic_jsonINSt3__13mapENS2_6vectorENS2_12basic_stringIcNS2_11char_traitsIcEENS2_9allocatorIcEEEEbxydS8_NS0_14adl_serializerENS4_IhNS8_IhEEEEvE4findIRA10_KcLi0EEENS0_6detail9iter_implIKSE_EEOT_, symObjAddr: 0x10960, symBinAddr: 0x110CC, symSize: 0x5C }
  - { offset: 0x639E6, size: 0x8, addend: 0x0, symName: __ZN8nlohmann16json_abi_v3_12_06detail9iter_implIKNS0_10basic_jsonINSt3__13mapENS4_6vectorENS4_12basic_stringIcNS4_11char_traitsIcEENS4_9allocatorIcEEEEbxydSA_NS0_14adl_serializerENS6_IhNSA_IhEEEEvEEEC2EPSH_, symObjAddr: 0x10C9C, symBinAddr: 0x11408, symSize: 0x48 }
  - { offset: 0x63A76, size: 0x8, addend: 0x0, symName: __ZN8nlohmann16json_abi_v3_12_06detail9iter_implIKNS0_10basic_jsonINSt3__13mapENS4_6vectorENS4_12basic_stringIcNS4_11char_traitsIcEENS4_9allocatorIcEEEEbxydSA_NS0_14adl_serializerENS6_IhNSA_IhEEEEvEEE7set_endEv, symObjAddr: 0x10C20, symBinAddr: 0x1138C, symSize: 0x7C }
  - { offset: 0x63B47, size: 0x8, addend: 0x0, symName: __ZNK8nlohmann16json_abi_v3_12_06detail9iter_implIKNS0_10basic_jsonINSt3__13mapENS4_6vectorENS4_12basic_stringIcNS4_11char_traitsIcEENS4_9allocatorIcEEEEbxydSA_NS0_14adl_serializerENS6_IhNSA_IhEEEEvEEEeqISI_LDn0EEEbRKT_, symObjAddr: 0x10DEC, symBinAddr: 0x11558, symSize: 0x110 }
  - { offset: 0x63D90, size: 0x8, addend: 0x0, symName: __ZNK8nlohmann16json_abi_v3_12_06detail9iter_implIKNS0_10basic_jsonINSt3__13mapENS4_6vectorENS4_12basic_stringIcNS4_11char_traitsIcEENS4_9allocatorIcEEEEbxydSA_NS0_14adl_serializerENS6_IhNSA_IhEEEEvEEEptEv, symObjAddr: 0x109BC, symBinAddr: 0x11128, symSize: 0x11C }
  - { offset: 0x6405C, size: 0x8, addend: 0x0, symName: __ZNK8nlohmann16json_abi_v3_12_010basic_jsonINSt3__13mapENS2_6vectorENS2_12basic_stringIcNS2_11char_traitsIcEENS2_9allocatorIcEEEEbxydS8_NS0_14adl_serializerENS4_IhNS8_IhEEEEvE9type_nameEv, symObjAddr: 0xD7C8, symBinAddr: 0xDFF4, symSize: 0x28 }
  - { offset: 0x64083, size: 0x8, addend: 0x0, symName: __ZN8nlohmann16json_abi_v3_12_06detail10type_error6createIPKNS0_10basic_jsonINSt3__13mapENS5_6vectorENS5_12basic_stringIcNS5_11char_traitsIcEENS5_9allocatorIcEEEEbxydSB_NS0_14adl_serializerENS7_IhNSB_IhEEEEvEELi0EEES2_iRKSD_T_, symObjAddr: 0x10AD8, symBinAddr: 0x11244, symSize: 0x148 }
  - { offset: 0x649E1, size: 0x8, addend: 0x0, symName: __ZN8nlohmann16json_abi_v3_12_010basic_jsonINSt3__13mapENS2_6vectorENS2_12basic_stringIcNS2_11char_traitsIcEENS2_9allocatorIcEEEEbxydS8_NS0_14adl_serializerENS4_IhNS8_IhEEEEvEixESA_, symObjAddr: 0x111B8, symBinAddr: 0x1189C, symSize: 0x12C }
  - { offset: 0x6504A, size: 0x8, addend: 0x0, symName: __ZNK8nlohmann16json_abi_v3_12_010basic_jsonINSt3__13mapENS2_6vectorENS2_12basic_stringIcNS2_11char_traitsIcEENS2_9allocatorIcEEEEbxydS8_NS0_14adl_serializerENS4_IhNS8_IhEEEEvE8get_implIbLi0EEET_NS0_6detail12priority_tagILj0EEE, symObjAddr: 0x11804, symBinAddr: 0x11D20, symSize: 0xD8 }
  - { offset: 0x652A4, size: 0x8, addend: 0x0, symName: __ZN8nlohmann16json_abi_v3_12_06detail16invalid_iterator6createIPNS0_10basic_jsonINSt3__13mapENS5_6vectorENS5_12basic_stringIcNS5_11char_traitsIcEENS5_9allocatorIcEEEEbxydSB_NS0_14adl_serializerENS7_IhNSB_IhEEEEvEELi0EEES2_iRKSD_T_, symObjAddr: 0xD42C, symBinAddr: 0xDC58, symSize: 0x148 }
  - { offset: 0x65BCD, size: 0x8, addend: 0x0, symName: __ZNK8nlohmann16json_abi_v3_12_06detail9iter_implINS0_10basic_jsonINSt3__13mapENS4_6vectorENS4_12basic_stringIcNS4_11char_traitsIcEENS4_9allocatorIcEEEEbxydSA_NS0_14adl_serializerENS6_IhNSA_IhEEEEvEEEdeEv.cold.1, symObjAddr: 0x166C0, symBinAddr: 0x16058, symSize: 0x28 }
  - { offset: 0x65BE5, size: 0x8, addend: 0x0, symName: __ZNK8nlohmann16json_abi_v3_12_06detail9iter_implINS0_10basic_jsonINSt3__13mapENS4_6vectorENS4_12basic_stringIcNS4_11char_traitsIcEENS4_9allocatorIcEEEEbxydSA_NS0_14adl_serializerENS6_IhNSA_IhEEEEvEEEdeEv.cold.3, symObjAddr: 0x16710, symBinAddr: 0x160A8, symSize: 0x28 }
  - { offset: 0x65BFD, size: 0x8, addend: 0x0, symName: __ZNK8nlohmann16json_abi_v3_12_06detail9iter_implINS0_10basic_jsonINSt3__13mapENS4_6vectorENS4_12basic_stringIcNS4_11char_traitsIcEENS4_9allocatorIcEEEEbxydSA_NS0_14adl_serializerENS6_IhNSA_IhEEEEvEEEdeEv.cold.2, symObjAddr: 0x166E8, symBinAddr: 0x16080, symSize: 0x28 }
  - { offset: 0x65EF2, size: 0x8, addend: 0x0, symName: __ZNSt3__119__allocate_at_leastB9nqe210106INS_9allocatorItEEEENS_19__allocation_resultINS_16allocator_traitsIT_E7pointerEEERS5_m, symObjAddr: 0x11CFC, symBinAddr: 0x120F4, symSize: 0x30 }
  - { offset: 0x65F70, size: 0x8, addend: 0x0, symName: __ZN8nlohmann16json_abi_v3_12_06detail9iter_implINS0_10basic_jsonINSt3__13mapENS4_6vectorENS4_12basic_stringIcNS4_11char_traitsIcEENS4_9allocatorIcEEEEbxydSA_NS0_14adl_serializerENS6_IhNSA_IhEEEEvEEEppEv.cold.1, symObjAddr: 0x16738, symBinAddr: 0x160D0, symSize: 0x28 }
  - { offset: 0x663E9, size: 0x8, addend: 0x0, symName: __ZNSt3__114__split_bufferINS_12basic_stringIcNS_11char_traitsIcEENS_9allocatorIcEEEERNS4_IS6_EEED2Ev, symObjAddr: 0x5E78, symBinAddr: 0x67C8, symSize: 0x34 }
  - { offset: 0x664AB, size: 0x8, addend: 0x0, symName: __ZNSt3__16vectorINS_12basic_stringIcNS_11char_traitsIcEENS_9allocatorIcEEEENS4_IS6_EEE20__throw_length_errorB9nqe210106Ev, symObjAddr: 0x5E20, symBinAddr: 0x6770, symSize: 0x14 }
  - { offset: 0x664C3, size: 0x8, addend: 0x0, symName: __ZNSt3__119__allocate_at_leastB9nqe210106INS_9allocatorINS_12basic_stringIcNS_11char_traitsIcEENS1_IcEEEEEEEENS_19__allocation_resultINS_16allocator_traitsIT_E7pointerEEERSA_m, symObjAddr: 0x5E34, symBinAddr: 0x6784, symSize: 0x44 }
  - { offset: 0x66506, size: 0x8, addend: 0x0, symName: __ZNSt3__112basic_stringIcNS_11char_traitsIcEENS_9allocatorIcEEE20__throw_length_errorB9nqe210106Ev, symObjAddr: 0x5A8C, symBinAddr: 0x63DC, symSize: 0x14 }
  - { offset: 0x6651E, size: 0x8, addend: 0x0, symName: __ZNSt3__120__throw_length_errorB9nqe210106EPKc, symObjAddr: 0x5AA0, symBinAddr: 0x63F0, symSize: 0x50 }
  - { offset: 0x66529, size: 0x8, addend: 0x0, symName: __ZNSt12length_errorC1B9nqe210106EPKc, symObjAddr: 0x5AF0, symBinAddr: 0x6440, symSize: 0x24 }
  - { offset: 0x666AF, size: 0x8, addend: 0x0, symName: __ZNSt3__16vectorINS_12basic_stringIcNS_11char_traitsIcEENS_9allocatorIcEEEENS4_IS6_EEE30__emplace_back_assume_capacityB9nqe210106IJRKS6_EEEvDpOT_, symObjAddr: 0x5C8C, symBinAddr: 0x65DC, symSize: 0x5C }
  - { offset: 0x668B8, size: 0x8, addend: 0x0, symName: __ZNSt3__16vectorINS_12basic_stringIcNS_11char_traitsIcEENS_9allocatorIcEEEENS4_IS6_EEE24__emplace_back_slow_pathIJRKS6_EEEPS6_DpOT_, symObjAddr: 0x5CE8, symBinAddr: 0x6638, symSize: 0x138 }
  - { offset: 0x66DB8, size: 0x8, addend: 0x0, symName: __ZNSt3__114__split_bufferINS_12basic_stringIcNS_11char_traitsIcEENS_9allocatorIcEEEERNS4_IS6_EEE17__destruct_at_endB9nqe210106EPS6_, symObjAddr: 0x5EAC, symBinAddr: 0x67FC, symSize: 0x54 }
  - { offset: 0x66DF0, size: 0x8, addend: 0x0, symName: __ZNSt3__114__split_bufferINS_12basic_stringIcNS_11char_traitsIcEENS_9allocatorIcEEEERNS4_IS6_EEE17__destruct_at_endB9nqe210106EPS6_, symObjAddr: 0x5EAC, symBinAddr: 0x67FC, symSize: 0x54 }
  - { offset: 0x66F65, size: 0x8, addend: 0x0, symName: __ZNSt3__112basic_stringIcNS_11char_traitsIcEENS_9allocatorIcEEEC2B9nqe210106ENS_24__uninitialized_size_tagEmRKS4_, symObjAddr: 0x5F90, symBinAddr: 0x68E0, symSize: 0x7C }
  - { offset: 0x670EB, size: 0x8, addend: 0x0, symName: __ZNSt3__115basic_stringbufIcNS_11char_traitsIcEENS_9allocatorIcEEEC2B9nqe210106Ej, symObjAddr: 0x600C, symBinAddr: 0x695C, symSize: 0xA0 }
  - { offset: 0x67132, size: 0x8, addend: 0x0, symName: __ZNSt3__115basic_stringbufIcNS_11char_traitsIcEENS_9allocatorIcEEE15__init_buf_ptrsB9nqe210106Ev, symObjAddr: 0x60AC, symBinAddr: 0x69FC, symSize: 0x104 }
  - { offset: 0x6769D, size: 0x8, addend: 0x0, symName: __ZNSt3__112basic_stringIcNS_11char_traitsIcEENS_9allocatorIcEEEC2B9nqe210106Emc, symObjAddr: 0x6458, symBinAddr: 0x6DA8, symSize: 0xA0 }
  - { offset: 0x678BA, size: 0x8, addend: 0x0, symName: __ZN4Core6Logger3LogENS_8LogLevelERKNSt3__112basic_stringIcNS2_11char_traitsIcEENS2_9allocatorIcEEEE, symObjAddr: 0x64F8, symBinAddr: 0x6E48, symSize: 0x1A4 }
  - { offset: 0x67954, size: 0x8, addend: 0x0, symName: __ZN4Core6Logger9IsEnabledENS_8LogLevelE, symObjAddr: 0x669C, symBinAddr: 0x6FEC, symSize: 0x20 }
  - { offset: 0x67B90, size: 0x8, addend: 0x0, symName: __ZN8nlohmann16json_abi_v3_12_06detail6parserINS0_10basic_jsonINSt3__13mapENS4_6vectorENS4_12basic_stringIcNS4_11char_traitsIcEENS4_9allocatorIcEEEEbxydSA_NS0_14adl_serializerENS6_IhNSA_IhEEEEvEENS1_20input_stream_adapterEEC2EOSH_NS4_8functionIFbiNS1_13parse_event_tERSG_EEEbbb, symObjAddr: 0x7324, symBinAddr: 0x7C74, symSize: 0xEC }
  - { offset: 0x6826B, size: 0x8, addend: 0x0, symName: __ZNSt3__110__function12__value_funcIFbiN8nlohmann16json_abi_v3_12_06detail13parse_event_tERNS3_10basic_jsonINS_3mapENS_6vectorENS_12basic_stringIcNS_11char_traitsIcEENS_9allocatorIcEEEEbxydSC_NS3_14adl_serializerENS8_IhNSC_IhEEEEvEEEEC2B9nqe210106ERKSL_, symObjAddr: 0xA28C, symBinAddr: 0xAB3C, symSize: 0x64 }
  - { offset: 0x682C5, size: 0x8, addend: 0x0, symName: __ZN8nlohmann16json_abi_v3_12_06detail28json_sax_dom_callback_parserINS0_10basic_jsonINSt3__13mapENS4_6vectorENS4_12basic_stringIcNS4_11char_traitsIcEENS4_9allocatorIcEEEEbxydSA_NS0_14adl_serializerENS6_IhNSA_IhEEEEvEENS1_20input_stream_adapterEEC2ERSG_NS4_8functionIFbiNS1_13parse_event_tESJ_EEEbPNS1_5lexerISG_SH_EE, symObjAddr: 0xA2F0, symBinAddr: 0xABA0, symSize: 0x11C }
  - { offset: 0x6864C, size: 0x8, addend: 0x0, symName: __ZN8nlohmann16json_abi_v3_12_06detail6parserINS0_10basic_jsonINSt3__13mapENS4_6vectorENS4_12basic_stringIcNS4_11char_traitsIcEENS4_9allocatorIcEEEEbxydSA_NS0_14adl_serializerENS6_IhNSA_IhEEEEvEENS1_20input_stream_adapterEE18sax_parse_internalINS1_19json_sax_dom_parserISG_SH_EEEEbPT_, symObjAddr: 0x96A0, symBinAddr: 0x9F50, symSize: 0xBC0 }
  - { offset: 0x6A1F6, size: 0x8, addend: 0x0, symName: __ZN8nlohmann16json_abi_v3_12_06detail5lexerINS0_10basic_jsonINSt3__13mapENS4_6vectorENS4_12basic_stringIcNS4_11char_traitsIcEENS4_9allocatorIcEEEEbxydSA_NS0_14adl_serializerENS6_IhNSA_IhEEEEvEENS1_20input_stream_adapterEE4scanEv, symObjAddr: 0x7468, symBinAddr: 0x7DB8, symSize: 0x250 }
  - { offset: 0x6A32F, size: 0x8, addend: 0x0, symName: __ZNK8nlohmann16json_abi_v3_12_06detail5lexerINS0_10basic_jsonINSt3__13mapENS4_6vectorENS4_12basic_stringIcNS4_11char_traitsIcEENS4_9allocatorIcEEEEbxydSA_NS0_14adl_serializerENS6_IhNSA_IhEEEEvEENS1_20input_stream_adapterEE16get_token_stringEv, symObjAddr: 0x9074, symBinAddr: 0x9924, symSize: 0xEC }
  - { offset: 0x6A5DD, size: 0x8, addend: 0x0, symName: __ZN8nlohmann16json_abi_v3_12_06detail6parserINS0_10basic_jsonINSt3__13mapENS4_6vectorENS4_12basic_stringIcNS4_11char_traitsIcEENS4_9allocatorIcEEEEbxydSA_NS0_14adl_serializerENS6_IhNSA_IhEEEEvEENS1_20input_stream_adapterEE17exception_messageENS1_10lexer_baseISG_E10token_typeERKSC_, symObjAddr: 0x92FC, symBinAddr: 0x9BAC, symSize: 0x314 }
  - { offset: 0x6B5B9, size: 0x8, addend: 0x0, symName: __ZN8nlohmann16json_abi_v3_12_06detail11parse_error6createIDnLi0EEES2_iRKNS1_10position_tERKNSt3__112basic_stringIcNS7_11char_traitsIcEENS7_9allocatorIcEEEET_, symObjAddr: 0x9160, symBinAddr: 0x9A10, symSize: 0x19C }
  - { offset: 0x6C125, size: 0x8, addend: 0x0, symName: __ZN8nlohmann16json_abi_v3_12_06detail19json_sax_dom_parserINS0_10basic_jsonINSt3__13mapENS4_6vectorENS4_12basic_stringIcNS4_11char_traitsIcEENS4_9allocatorIcEEEEbxydSA_NS0_14adl_serializerENS6_IhNSA_IhEEEEvEENS1_20input_stream_adapterEE11parse_errorINS1_11parse_errorEEEbmRKSC_RKT_, symObjAddr: 0xA260, symBinAddr: 0xAB10, symSize: 0x2C }
  - { offset: 0x6C17A, size: 0x8, addend: 0x0, symName: __ZNSt3__110__function12__value_funcIFbiN8nlohmann16json_abi_v3_12_06detail13parse_event_tERNS3_10basic_jsonINS_3mapENS_6vectorENS_12basic_stringIcNS_11char_traitsIcEENS_9allocatorIcEEEEbxydSC_NS3_14adl_serializerENS8_IhNSC_IhEEEEvEEEEC2B9nqe210106ERKSL_, symObjAddr: 0xA28C, symBinAddr: 0xAB3C, symSize: 0x64 }
  - { offset: 0x6C18E, size: 0x8, addend: 0x0, symName: __ZN8nlohmann16json_abi_v3_12_010basic_jsonINSt3__13mapENS2_6vectorENS2_12basic_stringIcNS2_11char_traitsIcEENS2_9allocatorIcEEEEbxydS8_NS0_14adl_serializerENS4_IhNS8_IhEEEEvEaSESE_, symObjAddr: 0x9644, symBinAddr: 0x9EF4, symSize: 0x5C }
  - { offset: 0x6C25F, size: 0x8, addend: 0x0, symName: __ZN8nlohmann16json_abi_v3_12_06detail6parserINS0_10basic_jsonINSt3__13mapENS4_6vectorENS4_12basic_stringIcNS4_11char_traitsIcEENS4_9allocatorIcEEEEbxydSA_NS0_14adl_serializerENS6_IhNSA_IhEEEEvEENS1_20input_stream_adapterEE18sax_parse_internalINS1_28json_sax_dom_callback_parserISG_SH_EEEEbPT_, symObjAddr: 0x8490, symBinAddr: 0x8D40, symSize: 0xBB8 }
  - { offset: 0x6DD8D, size: 0x8, addend: 0x0, symName: __ZN8nlohmann16json_abi_v3_12_06detail28json_sax_dom_callback_parserINS0_10basic_jsonINSt3__13mapENS4_6vectorENS4_12basic_stringIcNS4_11char_traitsIcEENS4_9allocatorIcEEEEbxydSA_NS0_14adl_serializerENS6_IhNSA_IhEEEEvEENS1_20input_stream_adapterEE11parse_errorINS1_11parse_errorEEEbmRKSC_RKT_, symObjAddr: 0x9048, symBinAddr: 0x98F8, symSize: 0x2C }
  - { offset: 0x6DDE2, size: 0x8, addend: 0x0, symName: __ZNK8nlohmann16json_abi_v3_12_06detail5lexerINS0_10basic_jsonINSt3__13mapENS4_6vectorENS4_12basic_stringIcNS4_11char_traitsIcEENS4_9allocatorIcEEEEbxydSA_NS0_14adl_serializerENS6_IhNSA_IhEEEEvEENS1_20input_stream_adapterEE16get_token_stringEv, symObjAddr: 0x9074, symBinAddr: 0x9924, symSize: 0xEC }
  - { offset: 0x6DDF6, size: 0x8, addend: 0x0, symName: __ZN8nlohmann16json_abi_v3_12_06detail28json_sax_dom_callback_parserINS0_10basic_jsonINSt3__13mapENS4_6vectorENS4_12basic_stringIcNS4_11char_traitsIcEENS4_9allocatorIcEEEEbxydSA_NS0_14adl_serializerENS6_IhNSA_IhEEEEvEENS1_20input_stream_adapterEED2Ev, symObjAddr: 0xF664, symBinAddr: 0xFE90, symSize: 0x88 }
  - { offset: 0x6E5DA, size: 0x8, addend: 0x0, symName: __ZN8nlohmann16json_abi_v3_12_010basic_jsonINSt3__13mapENS2_6vectorENS2_12basic_stringIcNS2_11char_traitsIcEENS2_9allocatorIcEEEEbxydS8_NS0_14adl_serializerENS4_IhNS8_IhEEEEvE10json_valueC2ENS0_6detail7value_tE, symObjAddr: 0x6E68, symBinAddr: 0x77B8, symSize: 0xE0 }
  - { offset: 0x6E990, size: 0x8, addend: 0x0, symName: __ZN8nlohmann16json_abi_v3_12_010basic_jsonINSt3__13mapENS2_6vectorENS2_12basic_stringIcNS2_11char_traitsIcEENS2_9allocatorIcEEEEbxydS8_NS0_14adl_serializerENS4_IhNS8_IhEEEEvE6createISA_JRA1_KcEEEPT_DpOT0_, symObjAddr: 0x6F48, symBinAddr: 0x7898, symSize: 0x48 }
  - { offset: 0x6ED4C, size: 0x8, addend: 0x0, symName: __ZN8nlohmann16json_abi_v3_12_06detail9exception4nameERKNSt3__112basic_stringIcNS3_11char_traitsIcEENS3_9allocatorIcEEEEi, symObjAddr: 0x7090, symBinAddr: 0x79E0, symSize: 0x8C }
  - { offset: 0x6EFBE, size: 0x8, addend: 0x0, symName: __ZN8nlohmann16json_abi_v3_12_06detail9exceptionC2EiPKc, symObjAddr: 0x725C, symBinAddr: 0x7BAC, symSize: 0x54 }
  - { offset: 0x6F00B, size: 0x8, addend: 0x0, symName: __ZNK8nlohmann16json_abi_v3_12_06detail9exception4whatEv, symObjAddr: 0x72B0, symBinAddr: 0x7C00, symSize: 0x8 }
  - { offset: 0x6F032, size: 0x8, addend: 0x0, symName: __ZN8nlohmann16json_abi_v3_12_06detail9exceptionD1Ev, symObjAddr: 0x72B8, symBinAddr: 0x7C08, symSize: 0x34 }
  - { offset: 0x6F094, size: 0x8, addend: 0x0, symName: __ZN8nlohmann16json_abi_v3_12_06detail9exceptionD0Ev, symObjAddr: 0x72EC, symBinAddr: 0x7C3C, symSize: 0x38 }
  - { offset: 0x6F1B2, size: 0x8, addend: 0x0, symName: __ZN8nlohmann16json_abi_v3_12_06detail5lexerINS0_10basic_jsonINSt3__13mapENS4_6vectorENS4_12basic_stringIcNS4_11char_traitsIcEENS4_9allocatorIcEEEEbxydSA_NS0_14adl_serializerENS6_IhNSA_IhEEEEvEENS1_20input_stream_adapterEE17get_decimal_pointEv, symObjAddr: 0x7410, symBinAddr: 0x7D60, symSize: 0x58 }
  - { offset: 0x6F34E, size: 0x8, addend: 0x0, symName: __ZN8nlohmann16json_abi_v3_12_06detail5lexerINS0_10basic_jsonINSt3__13mapENS4_6vectorENS4_12basic_stringIcNS4_11char_traitsIcEENS4_9allocatorIcEEEEbxydSA_NS0_14adl_serializerENS6_IhNSA_IhEEEEvEENS1_20input_stream_adapterEE8skip_bomEv, symObjAddr: 0x76B8, symBinAddr: 0x8008, symSize: 0x60 }
  - { offset: 0x6F3CE, size: 0x8, addend: 0x0, symName: __ZN8nlohmann16json_abi_v3_12_06detail5lexerINS0_10basic_jsonINSt3__13mapENS4_6vectorENS4_12basic_stringIcNS4_11char_traitsIcEENS4_9allocatorIcEEEEbxydSA_NS0_14adl_serializerENS6_IhNSA_IhEEEEvEENS1_20input_stream_adapterEE3getEv, symObjAddr: 0x80CC, symBinAddr: 0x15F2C, symSize: 0x8C }
  - { offset: 0x6F428, size: 0x8, addend: 0x0, symName: __ZN8nlohmann16json_abi_v3_12_06detail5lexerINS0_10basic_jsonINSt3__13mapENS4_6vectorENS4_12basic_stringIcNS4_11char_traitsIcEENS4_9allocatorIcEEEEbxydSA_NS0_14adl_serializerENS6_IhNSA_IhEEEEvEENS1_20input_stream_adapterEE12scan_commentEv, symObjAddr: 0x7718, symBinAddr: 0x8068, symSize: 0xAC }
  - { offset: 0x6F4BE, size: 0x8, addend: 0x0, symName: __ZN8nlohmann16json_abi_v3_12_06detail5lexerINS0_10basic_jsonINSt3__13mapENS4_6vectorENS4_12basic_stringIcNS4_11char_traitsIcEENS4_9allocatorIcEEEEbxydSA_NS0_14adl_serializerENS6_IhNSA_IhEEEEvEENS1_20input_stream_adapterEE11scan_numberEv, symObjAddr: 0x7D2C, symBinAddr: 0x867C, symSize: 0x3A0 }
  - { offset: 0x6FC2F, size: 0x8, addend: 0x0, symName: __ZN8nlohmann16json_abi_v3_12_06detail5lexerINS0_10basic_jsonINSt3__13mapENS4_6vectorENS4_12basic_stringIcNS4_11char_traitsIcEENS4_9allocatorIcEEEEbxydSA_NS0_14adl_serializerENS6_IhNSA_IhEEEEvEENS1_20input_stream_adapterEE11scan_stringEv, symObjAddr: 0x7844, symBinAddr: 0x8194, symSize: 0x4E8 }
  - { offset: 0x6FE5B, size: 0x8, addend: 0x0, symName: __ZN8nlohmann16json_abi_v3_12_06detail5lexerINS0_10basic_jsonINSt3__13mapENS4_6vectorENS4_12basic_stringIcNS4_11char_traitsIcEENS4_9allocatorIcEEEEbxydSA_NS0_14adl_serializerENS6_IhNSA_IhEEEEvEENS1_20input_stream_adapterEE12scan_literalEPKcmNS1_10lexer_baseISG_E10token_typeE, symObjAddr: 0x77C4, symBinAddr: 0x8114, symSize: 0x80 }
  - { offset: 0x6FEE5, size: 0x8, addend: 0x0, symName: __ZN8nlohmann16json_abi_v3_12_06detail5lexerINS0_10basic_jsonINSt3__13mapENS4_6vectorENS4_12basic_stringIcNS4_11char_traitsIcEENS4_9allocatorIcEEEEbxydSA_NS0_14adl_serializerENS6_IhNSA_IhEEEEvEENS1_20input_stream_adapterEE11scan_stringEv, symObjAddr: 0x7844, symBinAddr: 0x8194, symSize: 0x4E8 }
  - { offset: 0x6FEF0, size: 0x8, addend: 0x0, symName: __ZN8nlohmann16json_abi_v3_12_06detail5lexerINS0_10basic_jsonINSt3__13mapENS4_6vectorENS4_12basic_stringIcNS4_11char_traitsIcEENS4_9allocatorIcEEEEbxydSA_NS0_14adl_serializerENS6_IhNSA_IhEEEEvEENS1_20input_stream_adapterEE5ungetEv, symObjAddr: 0x8158, symBinAddr: 0x8A1C, symSize: 0x64 }
  - { offset: 0x6FFA4, size: 0x8, addend: 0x0, symName: __ZN8nlohmann16json_abi_v3_12_06detail20input_stream_adapter13get_characterEv, symObjAddr: 0x81BC, symBinAddr: 0x8A80, symSize: 0x64 }
  - { offset: 0x6FFAF, size: 0x8, addend: 0x0, symName: __ZN8nlohmann16json_abi_v3_12_06detail5lexerINS0_10basic_jsonINSt3__13mapENS4_6vectorENS4_12basic_stringIcNS4_11char_traitsIcEENS4_9allocatorIcEEEEbxydSA_NS0_14adl_serializerENS6_IhNSA_IhEEEEvEENS1_20input_stream_adapterEE12scan_literalEPKcmNS1_10lexer_baseISG_E10token_typeE.cold.1, symObjAddr: 0x16760, symBinAddr: 0x160F8, symSize: 0x28 }
  - { offset: 0x6FFEA, size: 0x8, addend: 0x0, symName: __ZN8nlohmann16json_abi_v3_12_06detail5lexerINS0_10basic_jsonINSt3__13mapENS4_6vectorENS4_12basic_stringIcNS4_11char_traitsIcEENS4_9allocatorIcEEEEbxydSA_NS0_14adl_serializerENS6_IhNSA_IhEEEEvEENS1_20input_stream_adapterEE5resetEv, symObjAddr: 0x8308, symBinAddr: 0x8BB8, symSize: 0x5C }
  - { offset: 0x7016B, size: 0x8, addend: 0x0, symName: __ZN8nlohmann16json_abi_v3_12_06detail5lexerINS0_10basic_jsonINSt3__13mapENS4_6vectorENS4_12basic_stringIcNS4_11char_traitsIcEENS4_9allocatorIcEEEEbxydSA_NS0_14adl_serializerENS6_IhNSA_IhEEEEvEENS1_20input_stream_adapterEE18next_byte_in_rangeESt16initializer_listIiE, symObjAddr: 0x839C, symBinAddr: 0x8C4C, symSize: 0x54 }
  - { offset: 0x701BC, size: 0x8, addend: 0x0, symName: __ZN8nlohmann16json_abi_v3_12_06detail5lexerINS0_10basic_jsonINSt3__13mapENS4_6vectorENS4_12basic_stringIcNS4_11char_traitsIcEENS4_9allocatorIcEEEEbxydSA_NS0_14adl_serializerENS6_IhNSA_IhEEEEvEENS1_20input_stream_adapterEED2Ev, symObjAddr: 0x83F0, symBinAddr: 0x8CA0, symSize: 0x40 }
  - { offset: 0x701C7, size: 0x8, addend: 0x0, symName: __ZN8nlohmann16json_abi_v3_12_06detail5lexerINS0_10basic_jsonINSt3__13mapENS4_6vectorENS4_12basic_stringIcNS4_11char_traitsIcEENS4_9allocatorIcEEEEbxydSA_NS0_14adl_serializerENS6_IhNSA_IhEEEEvEENS1_20input_stream_adapterEE13get_codepointEv, symObjAddr: 0x8364, symBinAddr: 0x8C14, symSize: 0x38 }
  - { offset: 0x70221, size: 0x8, addend: 0x0, symName: __ZN8nlohmann16json_abi_v3_12_06detail5lexerINS0_10basic_jsonINSt3__13mapENS4_6vectorENS4_12basic_stringIcNS4_11char_traitsIcEENS4_9allocatorIcEEEEbxydSA_NS0_14adl_serializerENS6_IhNSA_IhEEEEvEENS1_20input_stream_adapterEE18next_byte_in_rangeESt16initializer_listIiE, symObjAddr: 0x839C, symBinAddr: 0x8C4C, symSize: 0x54 }
  - { offset: 0x7022C, size: 0x8, addend: 0x0, symName: __ZN8nlohmann16json_abi_v3_12_06detail5lexerINS0_10basic_jsonINSt3__13mapENS4_6vectorENS4_12basic_stringIcNS4_11char_traitsIcEENS4_9allocatorIcEEEEbxydSA_NS0_14adl_serializerENS6_IhNSA_IhEEEEvEENS1_20input_stream_adapterEE11scan_stringEv.cold.1, symObjAddr: 0x16788, symBinAddr: 0x16120, symSize: 0x28 }
  - { offset: 0x70244, size: 0x8, addend: 0x0, symName: __ZN8nlohmann16json_abi_v3_12_06detail5lexerINS0_10basic_jsonINSt3__13mapENS4_6vectorENS4_12basic_stringIcNS4_11char_traitsIcEENS4_9allocatorIcEEEEbxydSA_NS0_14adl_serializerENS6_IhNSA_IhEEEEvEENS1_20input_stream_adapterEE11scan_stringEv.cold.2, symObjAddr: 0x167B0, symBinAddr: 0x16148, symSize: 0x28 }
  - { offset: 0x702DD, size: 0x8, addend: 0x0, symName: __ZN8nlohmann16json_abi_v3_12_06detail5lexerINS0_10basic_jsonINSt3__13mapENS4_6vectorENS4_12basic_stringIcNS4_11char_traitsIcEENS4_9allocatorIcEEEEbxydSA_NS0_14adl_serializerENS6_IhNSA_IhEEEEvEENS1_20input_stream_adapterEE11scan_numberEv.cold.3, symObjAddr: 0x16810, symBinAddr: 0x161A8, symSize: 0x1C }
  - { offset: 0x702F5, size: 0x8, addend: 0x0, symName: __ZN8nlohmann16json_abi_v3_12_06detail5lexerINS0_10basic_jsonINSt3__13mapENS4_6vectorENS4_12basic_stringIcNS4_11char_traitsIcEENS4_9allocatorIcEEEEbxydSA_NS0_14adl_serializerENS6_IhNSA_IhEEEEvEENS1_20input_stream_adapterEE11scan_numberEv.cold.2, symObjAddr: 0x167F4, symBinAddr: 0x1618C, symSize: 0x1C }
  - { offset: 0x7030D, size: 0x8, addend: 0x0, symName: __ZN8nlohmann16json_abi_v3_12_06detail5lexerINS0_10basic_jsonINSt3__13mapENS4_6vectorENS4_12basic_stringIcNS4_11char_traitsIcEENS4_9allocatorIcEEEEbxydSA_NS0_14adl_serializerENS6_IhNSA_IhEEEEvEENS1_20input_stream_adapterEE11scan_numberEv.cold.1, symObjAddr: 0x167D8, symBinAddr: 0x16170, symSize: 0x1C }
  - { offset: 0x70325, size: 0x8, addend: 0x0, symName: __ZN8nlohmann16json_abi_v3_12_06detail5lexerINS0_10basic_jsonINSt3__13mapENS4_6vectorENS4_12basic_stringIcNS4_11char_traitsIcEENS4_9allocatorIcEEEEbxydSA_NS0_14adl_serializerENS6_IhNSA_IhEEEEvEENS1_20input_stream_adapterEE11scan_numberEv.cold.4, symObjAddr: 0x1682C, symBinAddr: 0x161C4, symSize: 0x28 }
  - { offset: 0x7033D, size: 0x8, addend: 0x0, symName: __ZN8nlohmann16json_abi_v3_12_06detail20input_stream_adapter13get_characterEv, symObjAddr: 0x81BC, symBinAddr: 0x8A80, symSize: 0x64 }
  - { offset: 0x703ED, size: 0x8, addend: 0x0, symName: __ZNSt3__16vectorIcNS_9allocatorIcEEE9push_backB9nqe210106EOc, symObjAddr: 0x8220, symBinAddr: 0x8AE4, symSize: 0xD4 }
  - { offset: 0x708B6, size: 0x8, addend: 0x0, symName: __ZN8nlohmann16json_abi_v3_12_06detail5lexerINS0_10basic_jsonINSt3__13mapENS4_6vectorENS4_12basic_stringIcNS4_11char_traitsIcEENS4_9allocatorIcEEEEbxydSA_NS0_14adl_serializerENS6_IhNSA_IhEEEEvEENS1_20input_stream_adapterEE5ungetEv.cold.1, symObjAddr: 0x16854, symBinAddr: 0x161EC, symSize: 0x28 }
  - { offset: 0x70929, size: 0x8, addend: 0x0, symName: __ZN8nlohmann16json_abi_v3_12_06detail20input_stream_adapter13get_characterEv.cold.1, symObjAddr: 0x1687C, symBinAddr: 0x16214, symSize: 0x1C }
  - { offset: 0x70C33, size: 0x8, addend: 0x0, symName: __ZN8nlohmann16json_abi_v3_12_06detail5lexerINS0_10basic_jsonINSt3__13mapENS4_6vectorENS4_12basic_stringIcNS4_11char_traitsIcEENS4_9allocatorIcEEEEbxydSA_NS0_14adl_serializerENS6_IhNSA_IhEEEEvEENS1_20input_stream_adapterEE5resetEv, symObjAddr: 0x8308, symBinAddr: 0x8BB8, symSize: 0x5C }
  - { offset: 0x70CA7, size: 0x8, addend: 0x0, symName: __ZN8nlohmann16json_abi_v3_12_06detail5lexerINS0_10basic_jsonINSt3__13mapENS4_6vectorENS4_12basic_stringIcNS4_11char_traitsIcEENS4_9allocatorIcEEEEbxydSA_NS0_14adl_serializerENS6_IhNSA_IhEEEEvEENS1_20input_stream_adapterEE13get_codepointEv.cold.2, symObjAddr: 0x168C0, symBinAddr: 0x16258, symSize: 0x110 }
  - { offset: 0x70D1B, size: 0x8, addend: 0x0, symName: __ZN8nlohmann16json_abi_v3_12_06detail5lexerINS0_10basic_jsonINSt3__13mapENS4_6vectorENS4_12basic_stringIcNS4_11char_traitsIcEENS4_9allocatorIcEEEEbxydSA_NS0_14adl_serializerENS6_IhNSA_IhEEEEvEENS1_20input_stream_adapterEE13get_codepointEv.cold.1, symObjAddr: 0x16898, symBinAddr: 0x16230, symSize: 0x28 }
  - { offset: 0x70D33, size: 0x8, addend: 0x0, symName: __ZN8nlohmann16json_abi_v3_12_06detail5lexerINS0_10basic_jsonINSt3__13mapENS4_6vectorENS4_12basic_stringIcNS4_11char_traitsIcEENS4_9allocatorIcEEEEbxydSA_NS0_14adl_serializerENS6_IhNSA_IhEEEEvEENS1_20input_stream_adapterEE18next_byte_in_rangeESt16initializer_listIiE.cold.1, symObjAddr: 0x169D0, symBinAddr: 0x16368, symSize: 0x90 }
  - { offset: 0x70DB5, size: 0x8, addend: 0x0, symName: __ZN8nlohmann16json_abi_v3_12_06detail5lexerINS0_10basic_jsonINSt3__13mapENS4_6vectorENS4_12basic_stringIcNS4_11char_traitsIcEENS4_9allocatorIcEEEEbxydSA_NS0_14adl_serializerENS6_IhNSA_IhEEEEvEENS1_20input_stream_adapterEE18next_byte_in_rangeESt16initializer_listIiE.cold.2, symObjAddr: 0x16A60, symBinAddr: 0x163F8, symSize: 0x28 }
  - { offset: 0x7114C, size: 0x8, addend: 0x0, symName: __ZN8nlohmann16json_abi_v3_12_06detail28json_sax_dom_callback_parserINS0_10basic_jsonINSt3__13mapENS4_6vectorENS4_12basic_stringIcNS4_11char_traitsIcEENS4_9allocatorIcEEEEbxydSA_NS0_14adl_serializerENS6_IhNSA_IhEEEEvEENS1_20input_stream_adapterEE12handle_valueIRbEENS4_4pairIbPSG_EEOT_b, symObjAddr: 0xE32C, symBinAddr: 0xEB58, symSize: 0x2A8 }
  - { offset: 0x71A1D, size: 0x8, addend: 0x0, symName: __ZN8nlohmann16json_abi_v3_12_06detail28json_sax_dom_callback_parserINS0_10basic_jsonINSt3__13mapENS4_6vectorENS4_12basic_stringIcNS4_11char_traitsIcEENS4_9allocatorIcEEEEbxydSA_NS0_14adl_serializerENS6_IhNSA_IhEEEEvEENS1_20input_stream_adapterEE12handle_valueIRxEENS4_4pairIbPSG_EEOT_b, symObjAddr: 0xE8C4, symBinAddr: 0xF0F0, symSize: 0x2A8 }
  - { offset: 0x722F5, size: 0x8, addend: 0x0, symName: __ZN8nlohmann16json_abi_v3_12_06detail28json_sax_dom_callback_parserINS0_10basic_jsonINSt3__13mapENS4_6vectorENS4_12basic_stringIcNS4_11char_traitsIcEENS4_9allocatorIcEEEEbxydSA_NS0_14adl_serializerENS6_IhNSA_IhEEEEvEENS1_20input_stream_adapterEE12handle_valueIRSC_EENS4_4pairIbPSG_EEOT_b, symObjAddr: 0xEBAC, symBinAddr: 0xF3D8, symSize: 0x294 }
  - { offset: 0x72AD3, size: 0x8, addend: 0x0, symName: __ZN8nlohmann16json_abi_v3_12_06detail28json_sax_dom_callback_parserINS0_10basic_jsonINSt3__13mapENS4_6vectorENS4_12basic_stringIcNS4_11char_traitsIcEENS4_9allocatorIcEEEEbxydSA_NS0_14adl_serializerENS6_IhNSA_IhEEEEvEENS1_20input_stream_adapterEE12start_objectEm, symObjAddr: 0xABA8, symBinAddr: 0xB444, symSize: 0x190 }
  - { offset: 0x72E09, size: 0x8, addend: 0x0, symName: __ZN8nlohmann16json_abi_v3_12_06detail28json_sax_dom_callback_parserINS0_10basic_jsonINSt3__13mapENS4_6vectorENS4_12basic_stringIcNS4_11char_traitsIcEENS4_9allocatorIcEEEEbxydSA_NS0_14adl_serializerENS6_IhNSA_IhEEEEvEENS1_20input_stream_adapterEE10end_objectEv, symObjAddr: 0xAD38, symBinAddr: 0xB5D4, symSize: 0x17C }
  - { offset: 0x7331A, size: 0x8, addend: 0x0, symName: __ZN8nlohmann16json_abi_v3_12_06detail28json_sax_dom_callback_parserINS0_10basic_jsonINSt3__13mapENS4_6vectorENS4_12basic_stringIcNS4_11char_traitsIcEENS4_9allocatorIcEEEEbxydSA_NS0_14adl_serializerENS6_IhNSA_IhEEEEvEENS1_20input_stream_adapterEE3keyERSC_, symObjAddr: 0xAEB4, symBinAddr: 0xB750, symSize: 0x120 }
  - { offset: 0x7332B, size: 0x8, addend: 0x0, symName: __ZN8nlohmann16json_abi_v3_12_06detail28json_sax_dom_callback_parserINS0_10basic_jsonINSt3__13mapENS4_6vectorENS4_12basic_stringIcNS4_11char_traitsIcEENS4_9allocatorIcEEEEbxydSA_NS0_14adl_serializerENS6_IhNSA_IhEEEEvEENS1_20input_stream_adapterEE12handle_valueIDnEENS4_4pairIbPSG_EEOT_b, symObjAddr: 0xE618, symBinAddr: 0xEE44, symSize: 0x2AC }
  - { offset: 0x73C13, size: 0x8, addend: 0x0, symName: __ZN8nlohmann16json_abi_v3_12_06detail28json_sax_dom_callback_parserINS0_10basic_jsonINSt3__13mapENS4_6vectorENS4_12basic_stringIcNS4_11char_traitsIcEENS4_9allocatorIcEEEEbxydSA_NS0_14adl_serializerENS6_IhNSA_IhEEEEvEENS1_20input_stream_adapterEE12handle_valueIRdEENS4_4pairIbPSG_EEOT_b, symObjAddr: 0xE03C, symBinAddr: 0xE868, symSize: 0x2A8 }
  - { offset: 0x744E8, size: 0x8, addend: 0x0, symName: __ZN8nlohmann16json_abi_v3_12_06detail28json_sax_dom_callback_parserINS0_10basic_jsonINSt3__13mapENS4_6vectorENS4_12basic_stringIcNS4_11char_traitsIcEENS4_9allocatorIcEEEEbxydSA_NS0_14adl_serializerENS6_IhNSA_IhEEEEvEENS1_20input_stream_adapterEE12handle_valueIRyEENS4_4pairIbPSG_EEOT_b, symObjAddr: 0xEE40, symBinAddr: 0xF66C, symSize: 0x2A8 }
  - { offset: 0x74DC0, size: 0x8, addend: 0x0, symName: __ZN8nlohmann16json_abi_v3_12_06detail28json_sax_dom_callback_parserINS0_10basic_jsonINSt3__13mapENS4_6vectorENS4_12basic_stringIcNS4_11char_traitsIcEENS4_9allocatorIcEEEEbxydSA_NS0_14adl_serializerENS6_IhNSA_IhEEEEvEENS1_20input_stream_adapterEE11start_arrayEm, symObjAddr: 0xAFD4, symBinAddr: 0xB870, symSize: 0x190 }
  - { offset: 0x750F6, size: 0x8, addend: 0x0, symName: __ZN8nlohmann16json_abi_v3_12_06detail28json_sax_dom_callback_parserINS0_10basic_jsonINSt3__13mapENS4_6vectorENS4_12basic_stringIcNS4_11char_traitsIcEENS4_9allocatorIcEEEEbxydSA_NS0_14adl_serializerENS6_IhNSA_IhEEEEvEENS1_20input_stream_adapterEE9end_arrayEv, symObjAddr: 0xB164, symBinAddr: 0xBA00, symSize: 0xE8 }
  - { offset: 0x753BF, size: 0x8, addend: 0x0, symName: __ZN8nlohmann16json_abi_v3_12_06detail28json_sax_dom_callback_parserINS0_10basic_jsonINSt3__13mapENS4_6vectorENS4_12basic_stringIcNS4_11char_traitsIcEENS4_9allocatorIcEEEEbxydSA_NS0_14adl_serializerENS6_IhNSA_IhEEEEvEENS1_20input_stream_adapterEE11parse_errorINS1_12out_of_rangeEEEbmRKSC_RKT_, symObjAddr: 0xB24C, symBinAddr: 0xBAE8, symSize: 0x2C }
  - { offset: 0x753CA, size: 0x8, addend: 0x0, symName: __ZN8nlohmann16json_abi_v3_12_06detail28json_sax_dom_callback_parserINS0_10basic_jsonINSt3__13mapENS4_6vectorENS4_12basic_stringIcNS4_11char_traitsIcEENS4_9allocatorIcEEEEbxydSA_NS0_14adl_serializerENS6_IhNSA_IhEEEEvEENS1_20input_stream_adapterEE3keyERSC_, symObjAddr: 0xAEB4, symBinAddr: 0xB750, symSize: 0x120 }
  - { offset: 0x757D6, size: 0x8, addend: 0x0, symName: __ZNSt3__16vectorIbNS_9allocatorIbEEE9push_backERKb, symObjAddr: 0xA40C, symBinAddr: 0xACBC, symSize: 0xA4 }
  - { offset: 0x758C8, size: 0x8, addend: 0x0, symName: __ZNSt3__16vectorIbNS_9allocatorIbEEE7reserveEm, symObjAddr: 0xA4B0, symBinAddr: 0xAD60, symSize: 0xB8 }
  - { offset: 0x758D3, size: 0x8, addend: 0x0, symName: __ZN8nlohmann16json_abi_v3_12_06detail12out_of_range6createIDnLi0EEES2_iRKNSt3__112basic_stringIcNS4_11char_traitsIcEENS4_9allocatorIcEEEET_, symObjAddr: 0xB278, symBinAddr: 0xBB14, symSize: 0x148 }
  - { offset: 0x761F8, size: 0x8, addend: 0x0, symName: __ZN8nlohmann16json_abi_v3_12_06detail28json_sax_dom_callback_parserINS0_10basic_jsonINSt3__13mapENS4_6vectorENS4_12basic_stringIcNS4_11char_traitsIcEENS4_9allocatorIcEEEEbxydSA_NS0_14adl_serializerENS6_IhNSA_IhEEEEvEENS1_20input_stream_adapterEE11parse_errorINS1_12out_of_rangeEEEbmRKSC_RKT_, symObjAddr: 0xB24C, symBinAddr: 0xBAE8, symSize: 0x2C }
  - { offset: 0x7624D, size: 0x8, addend: 0x0, symName: __ZN8nlohmann16json_abi_v3_12_06detail12out_of_range6createIDnLi0EEES2_iRKNSt3__112basic_stringIcNS4_11char_traitsIcEENS4_9allocatorIcEEEET_, symObjAddr: 0xB278, symBinAddr: 0xBB14, symSize: 0x148 }
  - { offset: 0x76261, size: 0x8, addend: 0x0, symName: __ZN8nlohmann16json_abi_v3_12_06detail6parserINS0_10basic_jsonINSt3__13mapENS4_6vectorENS4_12basic_stringIcNS4_11char_traitsIcEENS4_9allocatorIcEEEEbxydSA_NS0_14adl_serializerENS6_IhNSA_IhEEEEvEENS1_20input_stream_adapterEE18sax_parse_internalINS1_28json_sax_dom_callback_parserISG_SH_EEEEbPT_.cold.1, symObjAddr: 0x16A88, symBinAddr: 0x16420, symSize: 0x44 }
  - { offset: 0x76375, size: 0x8, addend: 0x0, symName: __ZN8nlohmann16json_abi_v3_12_06detail28json_sax_dom_callback_parserINS0_10basic_jsonINSt3__13mapENS4_6vectorENS4_12basic_stringIcNS4_11char_traitsIcEENS4_9allocatorIcEEEEbxydSA_NS0_14adl_serializerENS6_IhNSA_IhEEEEvEENS1_20input_stream_adapterEE11parse_errorINS1_11parse_errorEEEbmRKSC_RKT_.cold.1, symObjAddr: 0x16ACC, symBinAddr: 0x16464, symSize: 0x1C }
  - { offset: 0x76486, size: 0x8, addend: 0x0, symName: __ZN8nlohmann16json_abi_v3_12_06detail11parse_error15position_stringERKNS1_10position_tE, symObjAddr: 0xF368, symBinAddr: 0xFB94, symSize: 0xB8 }
  - { offset: 0x768F2, size: 0x8, addend: 0x0, symName: __ZN8nlohmann16json_abi_v3_12_06detail10lexer_baseINS0_10basic_jsonINSt3__13mapENS4_6vectorENS4_12basic_stringIcNS4_11char_traitsIcEENS4_9allocatorIcEEEEbxydSA_NS0_14adl_serializerENS6_IhNSA_IhEEEEvEEE15token_type_nameENSH_10token_typeE, symObjAddr: 0xF640, symBinAddr: 0xFE6C, symSize: 0x24 }
  - { offset: 0x76918, size: 0x8, addend: 0x0, symName: __ZN8nlohmann16json_abi_v3_12_06detail11parse_errorD1Ev, symObjAddr: 0x9610, symBinAddr: 0x9EC0, symSize: 0x34 }
  - { offset: 0x76A98, size: 0x8, addend: 0x0, symName: __ZN8nlohmann16json_abi_v3_12_06detail19json_sax_dom_parserINS0_10basic_jsonINSt3__13mapENS4_6vectorENS4_12basic_stringIcNS4_11char_traitsIcEENS4_9allocatorIcEEEEbxydSA_NS0_14adl_serializerENS6_IhNSA_IhEEEEvEENS1_20input_stream_adapterEE12handle_valueIRbEEPSG_OT_, symObjAddr: 0xFDA8, symBinAddr: 0x10514, symSize: 0x13C }
  - { offset: 0x770F9, size: 0x8, addend: 0x0, symName: __ZNSt3__16vectorIN8nlohmann16json_abi_v3_12_010basic_jsonINS_3mapES0_NS_12basic_stringIcNS_11char_traitsIcEENS_9allocatorIcEEEEbxydS8_NS2_14adl_serializerENS0_IhNS8_IhEEEEvEENS8_ISE_EEE24__emplace_back_slow_pathIJRbEEEPSE_DpOT_, symObjAddr: 0xFEE4, symBinAddr: 0x10650, symSize: 0x118 }
  - { offset: 0x7710D, size: 0x8, addend: 0x0, symName: __ZN8nlohmann16json_abi_v3_12_06detail19json_sax_dom_parserINS0_10basic_jsonINSt3__13mapENS4_6vectorENS4_12basic_stringIcNS4_11char_traitsIcEENS4_9allocatorIcEEEEbxydSA_NS0_14adl_serializerENS6_IhNSA_IhEEEEvEENS1_20input_stream_adapterEE12handle_valueIRxEEPSG_OT_, symObjAddr: 0x1025C, symBinAddr: 0x109C8, symSize: 0x13C }
  - { offset: 0x77783, size: 0x8, addend: 0x0, symName: __ZNSt3__16vectorIN8nlohmann16json_abi_v3_12_010basic_jsonINS_3mapES0_NS_12basic_stringIcNS_11char_traitsIcEENS_9allocatorIcEEEEbxydS8_NS2_14adl_serializerENS0_IhNS8_IhEEEEvEENS8_ISE_EEE24__emplace_back_slow_pathIJRxEEEPSE_DpOT_, symObjAddr: 0x10398, symBinAddr: 0x10B04, symSize: 0x118 }
  - { offset: 0x77797, size: 0x8, addend: 0x0, symName: __ZN8nlohmann16json_abi_v3_12_06detail19json_sax_dom_parserINS0_10basic_jsonINSt3__13mapENS4_6vectorENS4_12basic_stringIcNS4_11char_traitsIcEENS4_9allocatorIcEEEEbxydSA_NS0_14adl_serializerENS6_IhNSA_IhEEEEvEENS1_20input_stream_adapterEE12handle_valueIRSC_EEPSG_OT_, symObjAddr: 0x104B0, symBinAddr: 0x10C1C, symSize: 0x10C }
  - { offset: 0x77B9D, size: 0x8, addend: 0x0, symName: __ZN8nlohmann16json_abi_v3_12_06detail19json_sax_dom_parserINS0_10basic_jsonINSt3__13mapENS4_6vectorENS4_12basic_stringIcNS4_11char_traitsIcEENS4_9allocatorIcEEEEbxydSA_NS0_14adl_serializerENS6_IhNSA_IhEEEEvEENS1_20input_stream_adapterEE12handle_valueINS1_7value_tEEEPSG_OT_, symObjAddr: 0xF8C0, symBinAddr: 0x1002C, symSize: 0x12C }
  - { offset: 0x77F6A, size: 0x8, addend: 0x0, symName: __ZNSt3__16vectorIN8nlohmann16json_abi_v3_12_010basic_jsonINS_3mapES0_NS_12basic_stringIcNS_11char_traitsIcEENS_9allocatorIcEEEEbxydS8_NS2_14adl_serializerENS0_IhNS8_IhEEEEvEENS8_ISE_EEE30__emplace_back_assume_capacityB9nqe210106IJNS2_6detail7value_tEEEEvDpOT_, symObjAddr: 0xF9EC, symBinAddr: 0x10158, symSize: 0x4C }
  - { offset: 0x781B3, size: 0x8, addend: 0x0, symName: __ZN8nlohmann16json_abi_v3_12_06detail19json_sax_dom_parserINS0_10basic_jsonINSt3__13mapENS4_6vectorENS4_12basic_stringIcNS4_11char_traitsIcEENS4_9allocatorIcEEEEbxydSA_NS0_14adl_serializerENS6_IhNSA_IhEEEEvEENS1_20input_stream_adapterEE12handle_valueINS1_7value_tEEEPSG_OT_, symObjAddr: 0xF8C0, symBinAddr: 0x1002C, symSize: 0x12C }
  - { offset: 0x781BE, size: 0x8, addend: 0x0, symName: __ZN8nlohmann16json_abi_v3_12_06detail19json_sax_dom_parserINS0_10basic_jsonINSt3__13mapENS4_6vectorENS4_12basic_stringIcNS4_11char_traitsIcEENS4_9allocatorIcEEEEbxydSA_NS0_14adl_serializerENS6_IhNSA_IhEEEEvEENS1_20input_stream_adapterEE10end_objectEv, symObjAddr: 0xF6EC, symBinAddr: 0xFF18, symSize: 0x3C }
  - { offset: 0x7829D, size: 0x8, addend: 0x0, symName: __ZN8nlohmann16json_abi_v3_12_06detail19json_sax_dom_parserINS0_10basic_jsonINSt3__13mapENS4_6vectorENS4_12basic_stringIcNS4_11char_traitsIcEENS4_9allocatorIcEEEEbxydSA_NS0_14adl_serializerENS6_IhNSA_IhEEEEvEENS1_20input_stream_adapterEE3keyERSC_, symObjAddr: 0xF728, symBinAddr: 0xFF54, symSize: 0x70 }
  - { offset: 0x782A8, size: 0x8, addend: 0x0, symName: __ZN8nlohmann16json_abi_v3_12_06detail19json_sax_dom_parserINS0_10basic_jsonINSt3__13mapENS4_6vectorENS4_12basic_stringIcNS4_11char_traitsIcEENS4_9allocatorIcEEEEbxydSA_NS0_14adl_serializerENS6_IhNSA_IhEEEEvEENS1_20input_stream_adapterEE12handle_valueIDnEEPSG_OT_, symObjAddr: 0xFFFC, symBinAddr: 0x10768, symSize: 0x148 }
  - { offset: 0x7892A, size: 0x8, addend: 0x0, symName: __ZNSt3__16vectorIN8nlohmann16json_abi_v3_12_010basic_jsonINS_3mapES0_NS_12basic_stringIcNS_11char_traitsIcEENS_9allocatorIcEEEEbxydS8_NS2_14adl_serializerENS0_IhNS8_IhEEEEvEENS8_ISE_EEE24__emplace_back_slow_pathIJDnEEEPSE_DpOT_, symObjAddr: 0x10144, symBinAddr: 0x108B0, symSize: 0x118 }
  - { offset: 0x7893E, size: 0x8, addend: 0x0, symName: __ZN8nlohmann16json_abi_v3_12_06detail19json_sax_dom_parserINS0_10basic_jsonINSt3__13mapENS4_6vectorENS4_12basic_stringIcNS4_11char_traitsIcEENS4_9allocatorIcEEEEbxydSA_NS0_14adl_serializerENS6_IhNSA_IhEEEEvEENS1_20input_stream_adapterEE12handle_valueIRdEEPSG_OT_, symObjAddr: 0xFB54, symBinAddr: 0x102C0, symSize: 0x13C }
  - { offset: 0x78FAB, size: 0x8, addend: 0x0, symName: __ZNSt3__16vectorIN8nlohmann16json_abi_v3_12_010basic_jsonINS_3mapES0_NS_12basic_stringIcNS_11char_traitsIcEENS_9allocatorIcEEEEbxydS8_NS2_14adl_serializerENS0_IhNS8_IhEEEEvEENS8_ISE_EEE24__emplace_back_slow_pathIJRdEEEPSE_DpOT_, symObjAddr: 0xFC90, symBinAddr: 0x103FC, symSize: 0x118 }
  - { offset: 0x78FBF, size: 0x8, addend: 0x0, symName: __ZN8nlohmann16json_abi_v3_12_06detail19json_sax_dom_parserINS0_10basic_jsonINSt3__13mapENS4_6vectorENS4_12basic_stringIcNS4_11char_traitsIcEENS4_9allocatorIcEEEEbxydSA_NS0_14adl_serializerENS6_IhNSA_IhEEEEvEENS1_20input_stream_adapterEE12handle_valueIRyEEPSG_OT_, symObjAddr: 0x106C8, symBinAddr: 0x10E34, symSize: 0x13C }
  - { offset: 0x79635, size: 0x8, addend: 0x0, symName: __ZNSt3__16vectorIN8nlohmann16json_abi_v3_12_010basic_jsonINS_3mapES0_NS_12basic_stringIcNS_11char_traitsIcEENS_9allocatorIcEEEEbxydS8_NS2_14adl_serializerENS0_IhNS8_IhEEEEvEENS8_ISE_EEE24__emplace_back_slow_pathIJRyEEEPSE_DpOT_, symObjAddr: 0x10804, symBinAddr: 0x10F70, symSize: 0x118 }
  - { offset: 0x79649, size: 0x8, addend: 0x0, symName: __ZN8nlohmann16json_abi_v3_12_06detail19json_sax_dom_parserINS0_10basic_jsonINSt3__13mapENS4_6vectorENS4_12basic_stringIcNS4_11char_traitsIcEENS4_9allocatorIcEEEEbxydSA_NS0_14adl_serializerENS6_IhNSA_IhEEEEvEENS1_20input_stream_adapterEE9end_arrayEv, symObjAddr: 0xF798, symBinAddr: 0xFFC4, symSize: 0x3C }
  - { offset: 0x79728, size: 0x8, addend: 0x0, symName: __ZN8nlohmann16json_abi_v3_12_06detail19json_sax_dom_parserINS0_10basic_jsonINSt3__13mapENS4_6vectorENS4_12basic_stringIcNS4_11char_traitsIcEENS4_9allocatorIcEEEEbxydSA_NS0_14adl_serializerENS6_IhNSA_IhEEEEvEENS1_20input_stream_adapterEE11parse_errorINS1_12out_of_rangeEEEbmRKSC_RKT_, symObjAddr: 0xF7D4, symBinAddr: 0x10000, symSize: 0x2C }
  - { offset: 0x79733, size: 0x8, addend: 0x0, symName: __ZN8nlohmann16json_abi_v3_12_06detail19json_sax_dom_parserINS0_10basic_jsonINSt3__13mapENS4_6vectorENS4_12basic_stringIcNS4_11char_traitsIcEENS4_9allocatorIcEEEEbxydSA_NS0_14adl_serializerENS6_IhNSA_IhEEEEvEENS1_20input_stream_adapterEE3keyERSC_, symObjAddr: 0xF728, symBinAddr: 0xFF54, symSize: 0x70 }
  - { offset: 0x797FD, size: 0x8, addend: 0x0, symName: __ZN8nlohmann16json_abi_v3_12_06detail19json_sax_dom_parserINS0_10basic_jsonINSt3__13mapENS4_6vectorENS4_12basic_stringIcNS4_11char_traitsIcEENS4_9allocatorIcEEEEbxydSA_NS0_14adl_serializerENS6_IhNSA_IhEEEEvEENS1_20input_stream_adapterEE9end_arrayEv, symObjAddr: 0xF798, symBinAddr: 0xFFC4, symSize: 0x3C }
  - { offset: 0x79808, size: 0x8, addend: 0x0, symName: __ZN8nlohmann16json_abi_v3_12_06detail19json_sax_dom_parserINS0_10basic_jsonINSt3__13mapENS4_6vectorENS4_12basic_stringIcNS4_11char_traitsIcEENS4_9allocatorIcEEEEbxydSA_NS0_14adl_serializerENS6_IhNSA_IhEEEEvEENS1_20input_stream_adapterEE11parse_errorINS1_12out_of_rangeEEEbmRKSC_RKT_, symObjAddr: 0xF7D4, symBinAddr: 0x10000, symSize: 0x2C }
  - { offset: 0x79930, size: 0x8, addend: 0x0, symName: __ZN8nlohmann16json_abi_v3_12_06detail28json_sax_dom_callback_parserINS0_10basic_jsonINSt3__13mapENS4_6vectorENS4_12basic_stringIcNS4_11char_traitsIcEENS4_9allocatorIcEEEEbxydSA_NS0_14adl_serializerENS6_IhNSA_IhEEEEvEENS1_20input_stream_adapterEEC2ERSG_NS4_8functionIFbiNS1_13parse_event_tESJ_EEEbPNS1_5lexerISG_SH_EE.cold.1, symObjAddr: 0x16B48, symBinAddr: 0x16480, symSize: 0x4C }
  - { offset: 0x79B51, size: 0x8, addend: 0x0, symName: __ZNSt3__16vectorIbNS_9allocatorIbEEE7reserveEm, symObjAddr: 0xA4B0, symBinAddr: 0xAD60, symSize: 0xB8 }
  - { offset: 0x79F86, size: 0x8, addend: 0x0, symName: __ZNSt3__16vectorIbNS_9allocatorIbEEE11__vallocateB9nqe210106Em, symObjAddr: 0xA57C, symBinAddr: 0xAE18, symSize: 0x44 }
  - { offset: 0x7A0D8, size: 0x8, addend: 0x0, symName: __ZNSt3__16vectorIbNS_9allocatorIbEEE11__vallocateB9nqe210106Em, symObjAddr: 0xA57C, symBinAddr: 0xAE18, symSize: 0x44 }
  - { offset: 0x7A14F, size: 0x8, addend: 0x0, symName: __ZNSt3__16vectorIbNS_9allocatorIbEEE18__construct_at_endINS_14__bit_iteratorIS3_Lb0ELm0EEES6_EEvT_T0_m, symObjAddr: 0xA5C0, symBinAddr: 0xAE5C, symSize: 0xC8 }
  - { offset: 0x7A15A, size: 0x8, addend: 0x0, symName: __ZNSt3__16vectorIbNS_9allocatorIbEEE18__construct_at_endINS_14__bit_iteratorIS3_Lb0ELm0EEES6_EEvT_T0_m, symObjAddr: 0xA5C0, symBinAddr: 0xAE5C, symSize: 0xC8 }
  - { offset: 0x7A5ED, size: 0x8, addend: 0x0, symName: __ZNKSt3__111__copy_implclB9nqe210106INS_6vectorIbNS_9allocatorIbEEEELb0EEENS_4pairINS_14__bit_iteratorIT_XT0_EXLi0EEEENS7_IS8_Lb0EXLi0EEEEEES9_S9_SA_, symObjAddr: 0xA748, symBinAddr: 0xAFE4, symSize: 0xD4 }
  - { offset: 0x7AA28, size: 0x8, addend: 0x0, symName: __ZNKSt3__18functionIFbiN8nlohmann16json_abi_v3_12_06detail13parse_event_tERNS2_10basic_jsonINS_3mapENS_6vectorENS_12basic_stringIcNS_11char_traitsIcEENS_9allocatorIcEEEEbxydSB_NS2_14adl_serializerENS7_IhNSB_IhEEEEvEEEEclEiS4_SI_, symObjAddr: 0xB4B4, symBinAddr: 0xBD50, symSize: 0x40 }
  - { offset: 0x7AACB, size: 0x8, addend: 0x0, symName: __ZN8nlohmann16json_abi_v3_12_06detail28json_sax_dom_callback_parserINS0_10basic_jsonINSt3__13mapENS4_6vectorENS4_12basic_stringIcNS4_11char_traitsIcEENS4_9allocatorIcEEEEbxydSA_NS0_14adl_serializerENS6_IhNSA_IhEEEEvEENS1_20input_stream_adapterEE12handle_valueINS1_7value_tEEENS4_4pairIbPSG_EEOT_b, symObjAddr: 0xB4F4, symBinAddr: 0xBD90, symSize: 0x2AC }
  - { offset: 0x7AAD6, size: 0x8, addend: 0x0, symName: __ZN8nlohmann16json_abi_v3_12_06detail28json_sax_dom_callback_parserINS0_10basic_jsonINSt3__13mapENS4_6vectorENS4_12basic_stringIcNS4_11char_traitsIcEENS4_9allocatorIcEEEEbxydSA_NS0_14adl_serializerENS6_IhNSA_IhEEEEvEENS1_20input_stream_adapterEE12handle_valueINS1_7value_tEEENS4_4pairIbPSG_EEOT_b, symObjAddr: 0xB4F4, symBinAddr: 0xBD90, symSize: 0x2AC }
  - { offset: 0x7B33C, size: 0x8, addend: 0x0, symName: __ZNSt3__16vectorIPN8nlohmann16json_abi_v3_12_010basic_jsonINS_3mapES0_NS_12basic_stringIcNS_11char_traitsIcEENS_9allocatorIcEEEEbxydS8_NS2_14adl_serializerENS0_IhNS8_IhEEEEvEENS8_ISF_EEE9push_backB9nqe210106ERKSF_, symObjAddr: 0xB7A0, symBinAddr: 0xC03C, symSize: 0xC0 }
  - { offset: 0x7B6AB, size: 0x8, addend: 0x0, symName: __ZN8nlohmann16json_abi_v3_12_06detail12out_of_range6createIPNS0_10basic_jsonINSt3__13mapENS5_6vectorENS5_12basic_stringIcNS5_11char_traitsIcEENS5_9allocatorIcEEEEbxydSB_NS0_14adl_serializerENS7_IhNSB_IhEEEEvEELi0EEES2_iRKSD_T_, symObjAddr: 0xB860, symBinAddr: 0xC0FC, symSize: 0x148 }
  - { offset: 0x7B6B6, size: 0x8, addend: 0x0, symName: __ZN8nlohmann16json_abi_v3_12_06detail12out_of_range6createIPNS0_10basic_jsonINSt3__13mapENS5_6vectorENS5_12basic_stringIcNS5_11char_traitsIcEENS5_9allocatorIcEEEEbxydSB_NS0_14adl_serializerENS7_IhNSB_IhEEEEvEELi0EEES2_iRKSD_T_, symObjAddr: 0xB860, symBinAddr: 0xC0FC, symSize: 0x148 }
  - { offset: 0x7C0C6, size: 0x8, addend: 0x0, symName: __ZN8nlohmann16json_abi_v3_12_010basic_jsonINSt3__13mapENS2_6vectorENS2_12basic_stringIcNS2_11char_traitsIcEENS2_9allocatorIcEEEEbxydS8_NS0_14adl_serializerENS4_IhNS8_IhEEEEvEC2ERKSE_, symObjAddr: 0xC218, symBinAddr: 0xCA58, symSize: 0x108 }
  - { offset: 0x7C2D4, size: 0x8, addend: 0x0, symName: __ZN8nlohmann16json_abi_v3_12_06detail9iter_implINS0_10basic_jsonINSt3__13mapENS4_6vectorENS4_12basic_stringIcNS4_11char_traitsIcEENS4_9allocatorIcEEEEbxydSA_NS0_14adl_serializerENS6_IhNSA_IhEEEEvEEEC2EPSG_, symObjAddr: 0x11B14, symBinAddr: 0x11F20, symSize: 0x48 }
  - { offset: 0x7C353, size: 0x8, addend: 0x0, symName: __ZNK8nlohmann16json_abi_v3_12_06detail9iter_implINS0_10basic_jsonINSt3__13mapENS4_6vectorENS4_12basic_stringIcNS4_11char_traitsIcEENS4_9allocatorIcEEEEbxydSA_NS0_14adl_serializerENS6_IhNSA_IhEEEEvEEEptEv, symObjAddr: 0xBE7C, symBinAddr: 0xC6BC, symSize: 0x11C }
  - { offset: 0x7C61F, size: 0x8, addend: 0x0, symName: __ZN8nlohmann16json_abi_v3_12_010basic_jsonINSt3__13mapENS2_6vectorENS2_12basic_stringIcNS2_11char_traitsIcEENS2_9allocatorIcEEEEbxydS8_NS0_14adl_serializerENS4_IhNS8_IhEEEEvE5eraseINS0_6detail9iter_implISE_EELi0EEET_SJ_, symObjAddr: 0xBF98, symBinAddr: 0xC7D8, symSize: 0x280 }
  - { offset: 0x7CDCA, size: 0x8, addend: 0x0, symName: __ZN8nlohmann16json_abi_v3_12_06detail28json_sax_dom_callback_parserINS0_10basic_jsonINSt3__13mapENS4_6vectorENS4_12basic_stringIcNS4_11char_traitsIcEENS4_9allocatorIcEEEEbxydSA_NS0_14adl_serializerENS6_IhNSA_IhEEEEvEENS1_20input_stream_adapterEE10end_objectEv.cold.2, symObjAddr: 0x16BBC, symBinAddr: 0x164F4, symSize: 0x28 }
  - { offset: 0x7CDE2, size: 0x8, addend: 0x0, symName: __ZN8nlohmann16json_abi_v3_12_06detail28json_sax_dom_callback_parserINS0_10basic_jsonINSt3__13mapENS4_6vectorENS4_12basic_stringIcNS4_11char_traitsIcEENS4_9allocatorIcEEEEbxydSA_NS0_14adl_serializerENS6_IhNSA_IhEEEEvEENS1_20input_stream_adapterEE10end_objectEv.cold.1, symObjAddr: 0x16B94, symBinAddr: 0x164CC, symSize: 0x28 }
  - { offset: 0x7CE5E, size: 0x8, addend: 0x0, symName: __ZN8nlohmann16json_abi_v3_12_010basic_jsonINSt3__13mapENS2_6vectorENS2_12basic_stringIcNS2_11char_traitsIcEENS2_9allocatorIcEEEEbxydS8_NS0_14adl_serializerENS4_IhNS8_IhEEEEvEC2IRSA_SA_Li0EEEOT_, symObjAddr: 0xDD30, symBinAddr: 0xE55C, symSize: 0x48 }
  - { offset: 0x7CFC6, size: 0x8, addend: 0x0, symName: __ZNSt3__16__treeINS_12__value_typeINS_12basic_stringIcNS_11char_traitsIcEENS_9allocatorIcEEEEN8nlohmann16json_abi_v3_12_010basic_jsonINS_3mapENS_6vectorES7_bxydS5_NS9_14adl_serializerENSC_IhNS5_IhEEEEvEEEENS_19__map_value_compareIS7_NS_4pairIKS7_SG_EENS_4lessIvEELb1EEENS5_ISL_EEE25__emplace_unique_key_argsIS7_JRKNS_21piecewise_construct_tENS_5tupleIJRSK_EEENSV_IJEEEEEENSJ_INS_15__tree_iteratorISH_PNS_11__tree_nodeISH_PvEElEEbEERKT_DpOT0_, symObjAddr: 0xDDBC, symBinAddr: 0xE5E8, symSize: 0x94 }
  - { offset: 0x7D1B1, size: 0x8, addend: 0x0, symName: __ZNSt3__16vectorIN8nlohmann16json_abi_v3_12_010basic_jsonINS_3mapES0_NS_12basic_stringIcNS_11char_traitsIcEENS_9allocatorIcEEEEbxydS8_NS2_14adl_serializerENS0_IhNS8_IhEEEEvEENS8_ISE_EEE22__base_destruct_at_endB9nqe210106EPSE_, symObjAddr: 0xCD14, symBinAddr: 0xD554, symSize: 0x58 }
  - { offset: 0x7D2B1, size: 0x8, addend: 0x0, symName: __ZN8nlohmann16json_abi_v3_12_06detail28json_sax_dom_callback_parserINS0_10basic_jsonINSt3__13mapENS4_6vectorENS4_12basic_stringIcNS4_11char_traitsIcEENS4_9allocatorIcEEEEbxydSA_NS0_14adl_serializerENS6_IhNSA_IhEEEEvEENS1_20input_stream_adapterEE9end_arrayEv.cold.2, symObjAddr: 0x16C0C, symBinAddr: 0x16544, symSize: 0x28 }
  - { offset: 0x7D2C9, size: 0x8, addend: 0x0, symName: __ZN8nlohmann16json_abi_v3_12_06detail28json_sax_dom_callback_parserINS0_10basic_jsonINSt3__13mapENS4_6vectorENS4_12basic_stringIcNS4_11char_traitsIcEENS4_9allocatorIcEEEEbxydSA_NS0_14adl_serializerENS6_IhNSA_IhEEEEvEENS1_20input_stream_adapterEE9end_arrayEv.cold.1, symObjAddr: 0x16BE4, symBinAddr: 0x1651C, symSize: 0x28 }
  - { offset: 0x7D2E1, size: 0x8, addend: 0x0, symName: __ZN8nlohmann16json_abi_v3_12_06detail28json_sax_dom_callback_parserINS0_10basic_jsonINSt3__13mapENS4_6vectorENS4_12basic_stringIcNS4_11char_traitsIcEENS4_9allocatorIcEEEEbxydSA_NS0_14adl_serializerENS6_IhNSA_IhEEEEvEENS1_20input_stream_adapterEE11parse_errorINS1_12out_of_rangeEEEbmRKSC_RKT_.cold.1, symObjAddr: 0x16C34, symBinAddr: 0x1656C, symSize: 0x1C }
  - { offset: 0x7D38A, size: 0x8, addend: 0x0, symName: __ZN8nlohmann16json_abi_v3_12_06detail12out_of_rangeD1Ev, symObjAddr: 0xB480, symBinAddr: 0xBD1C, symSize: 0x34 }
  - { offset: 0x7D5FA, size: 0x8, addend: 0x0, symName: __ZNSt3__16vectorIN8nlohmann16json_abi_v3_12_010basic_jsonINS_3mapES0_NS_12basic_stringIcNS_11char_traitsIcEENS_9allocatorIcEEEEbxydS8_NS2_14adl_serializerENS0_IhNS8_IhEEEEvEENS8_ISE_EEE24__emplace_back_slow_pathIJSE_EEEPSE_DpOT_, symObjAddr: 0xBAA0, symBinAddr: 0xC33C, symSize: 0x124 }
  - { offset: 0x7D970, size: 0x8, addend: 0x0, symName: __ZN8nlohmann16json_abi_v3_12_06detail28json_sax_dom_callback_parserINS0_10basic_jsonINSt3__13mapENS4_6vectorENS4_12basic_stringIcNS4_11char_traitsIcEENS4_9allocatorIcEEEEbxydSA_NS0_14adl_serializerENS6_IhNSA_IhEEEEvEENS1_20input_stream_adapterEE12handle_valueINS1_7value_tEEENS4_4pairIbPSG_EEOT_b.cold.1, symObjAddr: 0x16C50, symBinAddr: 0x16588, symSize: 0xC }
  - { offset: 0x7DCB9, size: 0x8, addend: 0x0, symName: __ZNSt3__117bad_function_callD1Ev, symObjAddr: 0xBA88, symBinAddr: 0xC324, symSize: 0x4 }
  - { offset: 0x7DCDB, size: 0x8, addend: 0x0, symName: __ZNSt3__117bad_function_callD1Ev, symObjAddr: 0xBA88, symBinAddr: 0xC324, symSize: 0x4 }
  - { offset: 0x7DD13, size: 0x8, addend: 0x0, symName: __ZNSt3__117bad_function_callD0Ev, symObjAddr: 0xBA8C, symBinAddr: 0xC328, symSize: 0x14 }
  - { offset: 0x7DED0, size: 0x8, addend: 0x0, symName: __ZNSt3__114__split_bufferIN8nlohmann16json_abi_v3_12_010basic_jsonINS_3mapENS_6vectorENS_12basic_stringIcNS_11char_traitsIcEENS_9allocatorIcEEEEbxydS9_NS2_14adl_serializerENS5_IhNS9_IhEEEEvEERNS9_ISF_EEED2Ev, symObjAddr: 0xBD6C, symBinAddr: 0xC5F4, symSize: 0x34 }
  - { offset: 0x7DF9C, size: 0x8, addend: 0x0, symName: __ZNSt3__119__allocate_at_leastB9nqe210106INS_9allocatorIN8nlohmann16json_abi_v3_12_010basic_jsonINS_3mapENS_6vectorENS_12basic_stringIcNS_11char_traitsIcEENS1_IcEEEEbxydS1_NS3_14adl_serializerENS6_IhNS1_IhEEEEvEEEEEENS_19__allocation_resultINS_16allocator_traitsIT_E7pointerEEERSJ_m, symObjAddr: 0xBBD8, symBinAddr: 0xC460, symSize: 0x34 }
  - { offset: 0x7E034, size: 0x8, addend: 0x0, symName: __ZNSt3__128__exception_guard_exceptionsINS_29_AllocatorDestroyRangeReverseINS_9allocatorIN8nlohmann16json_abi_v3_12_010basic_jsonINS_3mapENS_6vectorENS_12basic_stringIcNS_11char_traitsIcEENS2_IcEEEEbxydS2_NS4_14adl_serializerENS7_IhNS2_IhEEEEvEEEEPSG_EEED2B9nqe210106Ev, symObjAddr: 0xBCDC, symBinAddr: 0xC564, symSize: 0x48 }
  - { offset: 0x7E147, size: 0x8, addend: 0x0, symName: __ZNSt3__114__split_bufferIN8nlohmann16json_abi_v3_12_010basic_jsonINS_3mapENS_6vectorENS_12basic_stringIcNS_11char_traitsIcEENS_9allocatorIcEEEEbxydS9_NS2_14adl_serializerENS5_IhNS9_IhEEEEvEERNS9_ISF_EEE17__destruct_at_endB9nqe210106EPSF_, symObjAddr: 0xBDA0, symBinAddr: 0xC628, symSize: 0x5C }
  - { offset: 0x7E17F, size: 0x8, addend: 0x0, symName: __ZNSt3__114__split_bufferIN8nlohmann16json_abi_v3_12_010basic_jsonINS_3mapENS_6vectorENS_12basic_stringIcNS_11char_traitsIcEENS_9allocatorIcEEEEbxydS9_NS2_14adl_serializerENS5_IhNS9_IhEEEEvEERNS9_ISF_EEE17__destruct_at_endB9nqe210106EPSF_, symObjAddr: 0xBDA0, symBinAddr: 0xC628, symSize: 0x5C }
  - { offset: 0x7E2B4, size: 0x8, addend: 0x0, symName: __ZN8nlohmann16json_abi_v3_12_06detail12out_of_rangeD0Ev, symObjAddr: 0xBE44, symBinAddr: 0xC684, symSize: 0x38 }
  - { offset: 0x7E339, size: 0x8, addend: 0x0, symName: __ZNK8nlohmann16json_abi_v3_12_06detail9iter_implINS0_10basic_jsonINSt3__13mapENS4_6vectorENS4_12basic_stringIcNS4_11char_traitsIcEENS4_9allocatorIcEEEEbxydSA_NS0_14adl_serializerENS6_IhNSA_IhEEEEvEEEptEv.cold.1, symObjAddr: 0x16C5C, symBinAddr: 0x16594, symSize: 0xC }
  - { offset: 0x7E351, size: 0x8, addend: 0x0, symName: __ZNK8nlohmann16json_abi_v3_12_06detail9iter_implINS0_10basic_jsonINSt3__13mapENS4_6vectorENS4_12basic_stringIcNS4_11char_traitsIcEENS4_9allocatorIcEEEEbxydSA_NS0_14adl_serializerENS6_IhNSA_IhEEEEvEEEptEv.cold.3, symObjAddr: 0x16C74, symBinAddr: 0x165AC, symSize: 0xC }
  - { offset: 0x7E369, size: 0x8, addend: 0x0, symName: __ZNK8nlohmann16json_abi_v3_12_06detail9iter_implINS0_10basic_jsonINSt3__13mapENS4_6vectorENS4_12basic_stringIcNS4_11char_traitsIcEENS4_9allocatorIcEEEEbxydSA_NS0_14adl_serializerENS6_IhNSA_IhEEEEvEEEptEv.cold.2, symObjAddr: 0x16C68, symBinAddr: 0x165A0, symSize: 0xC }
  - { offset: 0x7E5E2, size: 0x8, addend: 0x0, symName: __ZNKSt3__111__move_implINS_17_ClassicAlgPolicyEEclB9nqe210106IPN8nlohmann16json_abi_v3_12_010basic_jsonINS_3mapENS_6vectorENS_12basic_stringIcNS_11char_traitsIcEENS_9allocatorIcEEEEbxydSC_NS5_14adl_serializerENS8_IhNSC_IhEEEEvEESJ_SJ_EENS_4pairIT_T1_EESL_T0_SM_, symObjAddr: 0xDC58, symBinAddr: 0xE484, symSize: 0xA0 }
  - { offset: 0x7E775, size: 0x8, addend: 0x0, symName: __ZNSt3__16__treeINS_12__value_typeINS_12basic_stringIcNS_11char_traitsIcEENS_9allocatorIcEEEEN8nlohmann16json_abi_v3_12_010basic_jsonINS_3mapENS_6vectorES7_bxydS5_NS9_14adl_serializerENSC_IhNS5_IhEEEEvEEEENS_19__map_value_compareIS7_NS_4pairIKS7_SG_EENS_4lessIvEELb1EEENS5_ISL_EEE21__remove_node_pointerEPNS_11__tree_nodeISH_PvEE, symObjAddr: 0xD824, symBinAddr: 0xE050, symSize: 0x70 }
  - { offset: 0x7E83B, size: 0x8, addend: 0x0, symName: __ZN8nlohmann16json_abi_v3_12_06detail10type_error6createIPNS0_10basic_jsonINSt3__13mapENS5_6vectorENS5_12basic_stringIcNS5_11char_traitsIcEENS5_9allocatorIcEEEEbxydSB_NS0_14adl_serializerENS7_IhNSB_IhEEEEvEELi0EEES2_iRKSD_T_, symObjAddr: 0xD5E0, symBinAddr: 0xDE0C, symSize: 0x148 }
  - { offset: 0x7F2D0, size: 0x8, addend: 0x0, symName: __ZN8nlohmann16json_abi_v3_12_010basic_jsonINSt3__13mapENS2_6vectorENS2_12basic_stringIcNS2_11char_traitsIcEENS2_9allocatorIcEEEEbxydS8_NS0_14adl_serializerENS4_IhNS8_IhEEEEvE6createINS4_ISE_NS8_ISE_EEEEJRKSH_EEEPT_DpOT0_, symObjAddr: 0xCB1C, symBinAddr: 0xD35C, symSize: 0x58 }
  - { offset: 0x7F584, size: 0x8, addend: 0x0, symName: __ZN8nlohmann16json_abi_v3_12_010basic_jsonINSt3__13mapENS2_6vectorENS2_12basic_stringIcNS2_11char_traitsIcEENS2_9allocatorIcEEEEbxydS8_NS0_14adl_serializerENS4_IhNS8_IhEEEEvE6createINS0_27byte_container_with_subtypeISD_EEJRKSH_EEEPT_DpOT0_, symObjAddr: 0xCDD4, symBinAddr: 0xD614, symSize: 0x64 }
  - { offset: 0x7F864, size: 0x8, addend: 0x0, symName: __ZN8nlohmann16json_abi_v3_12_010basic_jsonINSt3__13mapENS2_6vectorENS2_12basic_stringIcNS2_11char_traitsIcEENS2_9allocatorIcEEEEbxydS8_NS0_14adl_serializerENS4_IhNS8_IhEEEEvE6createINS3_ISA_SE_NS2_4lessIvEENS8_INS2_4pairIKSA_SE_EEEEEEJRKSM_EEEPT_DpOT0_, symObjAddr: 0xC320, symBinAddr: 0xCB60, symSize: 0x48 }
  - { offset: 0x7FAE6, size: 0x8, addend: 0x0, symName: __ZN8nlohmann16json_abi_v3_12_010basic_jsonINSt3__13mapENS2_6vectorENS2_12basic_stringIcNS2_11char_traitsIcEENS2_9allocatorIcEEEEbxydS8_NS0_14adl_serializerENS4_IhNS8_IhEEEEvE6createISA_JRKSA_EEEPT_DpOT0_, symObjAddr: 0xCD6C, symBinAddr: 0xD5AC, symSize: 0x68 }
  - { offset: 0x7FF3F, size: 0x8, addend: 0x0, symName: __ZNSt3__13mapINS_12basic_stringIcNS_11char_traitsIcEENS_9allocatorIcEEEEN8nlohmann16json_abi_v3_12_010basic_jsonIS0_NS_6vectorES6_bxydS4_NS8_14adl_serializerENSA_IhNS4_IhEEEEvEENS_4lessIvEENS4_INS_4pairIKS6_SE_EEEEEC2B9nqe210106ERKSL_, symObjAddr: 0xC368, symBinAddr: 0xCBA8, symSize: 0x54 }
  - { offset: 0x801BF, size: 0x8, addend: 0x0, symName: __ZNSt3__13mapINS_12basic_stringIcNS_11char_traitsIcEENS_9allocatorIcEEEEN8nlohmann16json_abi_v3_12_010basic_jsonIS0_NS_6vectorES6_bxydS4_NS8_14adl_serializerENSA_IhNS4_IhEEEEvEENS_4lessIvEENS4_INS_4pairIKS6_SE_EEEEE6insertB9nqe210106INS_20__map_const_iteratorINS_21__tree_const_iteratorINS_12__value_typeIS6_SE_EEPNS_11__tree_nodeISQ_PvEElEEEEEEvT_SX_, symObjAddr: 0xC3BC, symBinAddr: 0xCBFC, symSize: 0x80 }
  - { offset: 0x80207, size: 0x8, addend: 0x0, symName: __ZNSt3__13mapINS_12basic_stringIcNS_11char_traitsIcEENS_9allocatorIcEEEEN8nlohmann16json_abi_v3_12_010basic_jsonIS0_NS_6vectorES6_bxydS4_NS8_14adl_serializerENSA_IhNS4_IhEEEEvEENS_4lessIvEENS4_INS_4pairIKS6_SE_EEEEE6insertB9nqe210106INS_20__map_const_iteratorINS_21__tree_const_iteratorINS_12__value_typeIS6_SE_EEPNS_11__tree_nodeISQ_PvEElEEEEEEvT_SX_, symObjAddr: 0xC3BC, symBinAddr: 0xCBFC, symSize: 0x80 }
  - { offset: 0x803B6, size: 0x8, addend: 0x0, symName: __ZNSt3__16__treeINS_12__value_typeINS_12basic_stringIcNS_11char_traitsIcEENS_9allocatorIcEEEEN8nlohmann16json_abi_v3_12_010basic_jsonINS_3mapENS_6vectorES7_bxydS5_NS9_14adl_serializerENSC_IhNS5_IhEEEEvEEEENS_19__map_value_compareIS7_NS_4pairIKS7_SG_EENS_4lessIvEELb1EEENS5_ISL_EEE7destroyEPNS_11__tree_nodeISH_PvEE, symObjAddr: 0xCAB8, symBinAddr: 0xD2F8, symSize: 0x64 }
  - { offset: 0x807CF, size: 0x8, addend: 0x0, symName: __ZNSt3__16__treeINS_12__value_typeINS_12basic_stringIcNS_11char_traitsIcEENS_9allocatorIcEEEEN8nlohmann16json_abi_v3_12_010basic_jsonINS_3mapENS_6vectorES7_bxydS5_NS9_14adl_serializerENSC_IhNS5_IhEEEEvEEEENS_19__map_value_compareIS7_NS_4pairIKS7_SG_EENS_4lessIvEELb1EEENS5_ISL_EEE30__emplace_hint_unique_key_argsIS7_JRKSL_EEENSJ_INS_15__tree_iteratorISH_PNS_11__tree_nodeISH_PvEElEEbEENS_21__tree_const_iteratorISH_SY_lEERKT_DpOT0_, symObjAddr: 0xC43C, symBinAddr: 0xCC7C, symSize: 0x80 }
  - { offset: 0x809B2, size: 0x8, addend: 0x0, symName: __ZNSt3__16__treeINS_12__value_typeINS_12basic_stringIcNS_11char_traitsIcEENS_9allocatorIcEEEEN8nlohmann16json_abi_v3_12_010basic_jsonINS_3mapENS_6vectorES7_bxydS5_NS9_14adl_serializerENSC_IhNS5_IhEEEEvEEEENS_19__map_value_compareIS7_NS_4pairIKS7_SG_EENS_4lessIvEELb1EEENS5_ISL_EEE12__find_equalIS7_EERPNS_16__tree_node_baseIPvEENS_21__tree_const_iteratorISH_PNS_11__tree_nodeISH_ST_EElEERPNS_15__tree_end_nodeISV_EESW_RKT_, symObjAddr: 0xC4BC, symBinAddr: 0xCCFC, symSize: 0x17C }
  - { offset: 0x80D8B, size: 0x8, addend: 0x0, symName: __ZNSt3__16__treeINS_12__value_typeINS_12basic_stringIcNS_11char_traitsIcEENS_9allocatorIcEEEEN8nlohmann16json_abi_v3_12_010basic_jsonINS_3mapENS_6vectorES7_bxydS5_NS9_14adl_serializerENSC_IhNS5_IhEEEEvEEEENS_19__map_value_compareIS7_NS_4pairIKS7_SG_EENS_4lessIvEELb1EEENS5_ISL_EEE16__construct_nodeIJRKSL_EEENS_10unique_ptrINS_11__tree_nodeISH_PvEENS_22__tree_node_destructorINS5_ISX_EEEEEEDpOT_, symObjAddr: 0xC638, symBinAddr: 0xCE78, symSize: 0x68 }
  - { offset: 0x80FE0, size: 0x8, addend: 0x0, symName: __ZNSt3__16__treeINS_12__value_typeINS_12basic_stringIcNS_11char_traitsIcEENS_9allocatorIcEEEEN8nlohmann16json_abi_v3_12_010basic_jsonINS_3mapENS_6vectorES7_bxydS5_NS9_14adl_serializerENSC_IhNS5_IhEEEEvEEEENS_19__map_value_compareIS7_NS_4pairIKS7_SG_EENS_4lessIvEELb1EEENS5_ISL_EEE16__insert_node_atEPNS_15__tree_end_nodeIPNS_16__tree_node_baseIPvEEEERSV_SV_, symObjAddr: 0xC6A0, symBinAddr: 0xCEE0, symSize: 0x50 }
  - { offset: 0x81127, size: 0x8, addend: 0x0, symName: __ZNSt3__16__treeINS_12__value_typeINS_12basic_stringIcNS_11char_traitsIcEENS_9allocatorIcEEEEN8nlohmann16json_abi_v3_12_010basic_jsonINS_3mapENS_6vectorES7_bxydS5_NS9_14adl_serializerENSC_IhNS5_IhEEEEvEEEENS_19__map_value_compareIS7_NS_4pairIKS7_SG_EENS_4lessIvEELb1EEENS5_ISL_EEE12__find_equalIS7_EERPNS_16__tree_node_baseIPvEERPNS_15__tree_end_nodeISV_EERKT_, symObjAddr: 0xC6F0, symBinAddr: 0xCF30, symSize: 0x84 }
  - { offset: 0x81442, size: 0x8, addend: 0x0, symName: __ZNSt3__14pairIKNS_12basic_stringIcNS_11char_traitsIcEENS_9allocatorIcEEEEN8nlohmann16json_abi_v3_12_010basic_jsonINS_3mapENS_6vectorES6_bxydS4_NS9_14adl_serializerENSC_IhNS4_IhEEEEvEEEC2B9nqe210106ERKSH_, symObjAddr: 0xC7EC, symBinAddr: 0xD02C, symSize: 0x74 }
  - { offset: 0x81612, size: 0x8, addend: 0x0, symName: __ZNSt3__110unique_ptrINS_11__tree_nodeINS_12__value_typeINS_12basic_stringIcNS_11char_traitsIcEENS_9allocatorIcEEEEN8nlohmann16json_abi_v3_12_010basic_jsonINS_3mapENS_6vectorES8_bxydS6_NSA_14adl_serializerENSD_IhNS6_IhEEEEvEEEEPvEENS_22__tree_node_destructorINS6_ISK_EEEEE5resetB9nqe210106EPSK_, symObjAddr: 0xCA28, symBinAddr: 0xD268, symSize: 0x48 }
  - { offset: 0x819E3, size: 0x8, addend: 0x0, symName: __ZNSt3__16vectorIN8nlohmann16json_abi_v3_12_010basic_jsonINS_3mapES0_NS_12basic_stringIcNS_11char_traitsIcEENS_9allocatorIcEEEEbxydS8_NS2_14adl_serializerENS0_IhNS8_IhEEEEvEENS8_ISE_EEE16__init_with_sizeB9nqe210106IPSE_SI_EEvT_T0_m, symObjAddr: 0xCB74, symBinAddr: 0xD3B4, symSize: 0x84 }
  - { offset: 0x81DC8, size: 0x8, addend: 0x0, symName: __ZNSt3__16vectorIN8nlohmann16json_abi_v3_12_010basic_jsonINS_3mapES0_NS_12basic_stringIcNS_11char_traitsIcEENS_9allocatorIcEEEEbxydS8_NS2_14adl_serializerENS0_IhNS8_IhEEEEvEENS8_ISE_EEE11__vallocateB9nqe210106Em, symObjAddr: 0xCBF8, symBinAddr: 0xD438, symSize: 0x3C }
  - { offset: 0x81E22, size: 0x8, addend: 0x0, symName: __ZNSt3__135__uninitialized_allocator_copy_implB9nqe210106INS_9allocatorIN8nlohmann16json_abi_v3_12_010basic_jsonINS_3mapENS_6vectorENS_12basic_stringIcNS_11char_traitsIcEENS1_IcEEEEbxydS1_NS3_14adl_serializerENS6_IhNS1_IhEEEEvEEEEPSF_SH_SH_EET2_RT_T0_T1_SI_, symObjAddr: 0xCC34, symBinAddr: 0xD474, symSize: 0xA0 }
  - { offset: 0x81E2D, size: 0x8, addend: 0x0, symName: __ZNSt3__16vectorIN8nlohmann16json_abi_v3_12_010basic_jsonINS_3mapES0_NS_12basic_stringIcNS_11char_traitsIcEENS_9allocatorIcEEEEbxydS8_NS2_14adl_serializerENS0_IhNS8_IhEEEEvEENS8_ISE_EEE16__destroy_vectorclB9nqe210106Ev, symObjAddr: 0xCCD4, symBinAddr: 0xD514, symSize: 0x40 }
  - { offset: 0x82246, size: 0x8, addend: 0x0, symName: __ZNSt3__16vectorIhNS_9allocatorIhEEE16__init_with_sizeB9nqe210106IPhS5_EEvT_T0_m, symObjAddr: 0xCE38, symBinAddr: 0xD678, symSize: 0x78 }
  - { offset: 0x827B2, size: 0x8, addend: 0x0, symName: __ZNSt3__16vectorIhNS_9allocatorIhEEE11__vallocateB9nqe210106Em, symObjAddr: 0xCEB0, symBinAddr: 0xD6F0, symSize: 0x3C }
  - { offset: 0x828AB, size: 0x8, addend: 0x0, symName: __ZN8nlohmann16json_abi_v3_12_010basic_jsonINSt3__13mapENS2_6vectorENS2_12basic_stringIcNS2_11char_traitsIcEENS2_9allocatorIcEEEEbxydS8_NS0_14adl_serializerENS4_IhNS8_IhEEEEvE4dataD2Ev, symObjAddr: 0xCF00, symBinAddr: 0xD72C, symSize: 0x2C }
  - { offset: 0x828B6, size: 0x8, addend: 0x0, symName: __ZN8nlohmann16json_abi_v3_12_010basic_jsonINSt3__13mapENS2_6vectorENS2_12basic_stringIcNS2_11char_traitsIcEENS2_9allocatorIcEEEEbxydS8_NS0_14adl_serializerENS4_IhNS8_IhEEEEvE10json_value7destroyENS0_6detail7value_tE, symObjAddr: 0xCF2C, symBinAddr: 0xD758, symSize: 0x3C4 }
  - { offset: 0x83CA3, size: 0x8, addend: 0x0, symName: __ZNSt3__16vectorIN8nlohmann16json_abi_v3_12_010basic_jsonINS_3mapES0_NS_12basic_stringIcNS_11char_traitsIcEENS_9allocatorIcEEEEbxydS8_NS2_14adl_serializerENS0_IhNS8_IhEEEEvEENS8_ISE_EEE7reserveEm, symObjAddr: 0xD2F0, symBinAddr: 0xDB1C, symSize: 0xC8 }
  - { offset: 0x83ED8, size: 0x8, addend: 0x0, symName: __ZNSt3__16vectorIN8nlohmann16json_abi_v3_12_010basic_jsonINS_3mapES0_NS_12basic_stringIcNS_11char_traitsIcEENS_9allocatorIcEEEEbxydS8_NS2_14adl_serializerENS0_IhNS8_IhEEEEvEENS8_ISE_EEE9push_backB9nqe210106EOSE_, symObjAddr: 0xD3B8, symBinAddr: 0xDBE4, symSize: 0x74 }
  - { offset: 0x840FD, size: 0x8, addend: 0x0, symName: __ZN8nlohmann16json_abi_v3_12_06detail16invalid_iteratorD1Ev, symObjAddr: 0xD574, symBinAddr: 0xDDA0, symSize: 0x34 }
  - { offset: 0x8417E, size: 0x8, addend: 0x0, symName: __ZN8nlohmann16json_abi_v3_12_06detail16invalid_iteratorD0Ev, symObjAddr: 0xD5A8, symBinAddr: 0xDDD4, symSize: 0x38 }
  - { offset: 0x842A8, size: 0x8, addend: 0x0, symName: __ZN8nlohmann16json_abi_v3_12_06detail10type_errorD1Ev, symObjAddr: 0xD7F0, symBinAddr: 0xE01C, symSize: 0x34 }
  - { offset: 0x84329, size: 0x8, addend: 0x0, symName: __ZN8nlohmann16json_abi_v3_12_06detail10type_errorD0Ev, symObjAddr: 0xDCF8, symBinAddr: 0xE524, symSize: 0x38 }
  - { offset: 0x8442E, size: 0x8, addend: 0x0, symName: __ZN8nlohmann16json_abi_v3_12_06detail20external_constructorILNS1_7value_tE3EE9constructINS0_10basic_jsonINSt3__13mapENS7_6vectorENS7_12basic_stringIcNS7_11char_traitsIcEENS7_9allocatorIcEEEEbxydSD_NS0_14adl_serializerENS9_IhNSD_IhEEEEvEEEEvRT_RKNSK_8string_tE, symObjAddr: 0xDD78, symBinAddr: 0xE5A4, symSize: 0x44 }
  - { offset: 0x844E1, size: 0x8, addend: 0x0, symName: __ZNSt3__16__treeINS_12__value_typeINS_12basic_stringIcNS_11char_traitsIcEENS_9allocatorIcEEEEN8nlohmann16json_abi_v3_12_010basic_jsonINS_3mapENS_6vectorES7_bxydS5_NS9_14adl_serializerENSC_IhNS5_IhEEEEvEEEENS_19__map_value_compareIS7_NS_4pairIKS7_SG_EENS_4lessIvEELb1EEENS5_ISL_EEE16__construct_nodeIJRKNS_21piecewise_construct_tENS_5tupleIJRSK_EEENSV_IJEEEEEENS_10unique_ptrINS_11__tree_nodeISH_PvEENS_22__tree_node_destructorINS5_IS12_EEEEEEDpOT_, symObjAddr: 0xDE50, symBinAddr: 0xE67C, symSize: 0x7C }
  - { offset: 0x848A8, size: 0x8, addend: 0x0, symName: __ZNSt3__14pairIKNS_12basic_stringIcNS_11char_traitsIcEENS_9allocatorIcEEEEN8nlohmann16json_abi_v3_12_010basic_jsonINS_3mapENS_6vectorES6_bxydS4_NS9_14adl_serializerENSC_IhNS4_IhEEEEvEEEC2B9nqe210106IJRS7_EJEJLm0EEJEEENS_21piecewise_construct_tERNS_5tupleIJDpT_EEERNSL_IJDpT0_EEENS_15__tuple_indicesIJXspT1_EEEENSU_IJXspT2_EEEE, symObjAddr: 0xDECC, symBinAddr: 0xE6F8, symSize: 0x70 }
  - { offset: 0x84BB7, size: 0x8, addend: 0x0, symName: __ZN8nlohmann16json_abi_v3_12_06detail12out_of_rangeC1ERKS2_, symObjAddr: 0xDFE8, symBinAddr: 0xE814, symSize: 0x54 }
  - { offset: 0x84D2F, size: 0x8, addend: 0x0, symName: __ZN8nlohmann16json_abi_v3_12_06detail20external_constructorILNS1_7value_tE7EE9constructINS0_10basic_jsonINSt3__13mapENS7_6vectorENS7_12basic_stringIcNS7_11char_traitsIcEENS7_9allocatorIcEEEEbxydSD_NS0_14adl_serializerENS9_IhNSD_IhEEEEvEEEEvRT_NSK_14number_float_tE, symObjAddr: 0xE2E4, symBinAddr: 0xEB10, symSize: 0x48 }
  - { offset: 0x84E90, size: 0x8, addend: 0x0, symName: __ZN8nlohmann16json_abi_v3_12_06detail20external_constructorILNS1_7value_tE4EE9constructINS0_10basic_jsonINSt3__13mapENS7_6vectorENS7_12basic_stringIcNS7_11char_traitsIcEENS7_9allocatorIcEEEEbxydSD_NS0_14adl_serializerENS9_IhNSD_IhEEEEvEEEEvRT_NSK_9boolean_tE, symObjAddr: 0xE5D4, symBinAddr: 0xEE00, symSize: 0x44 }
  - { offset: 0x84FFB, size: 0x8, addend: 0x0, symName: __ZN8nlohmann16json_abi_v3_12_06detail20external_constructorILNS1_7value_tE5EE9constructINS0_10basic_jsonINSt3__13mapENS7_6vectorENS7_12basic_stringIcNS7_11char_traitsIcEENS7_9allocatorIcEEEEbxydSD_NS0_14adl_serializerENS9_IhNSD_IhEEEEvEEEEvRT_NSK_16number_integer_tE, symObjAddr: 0xEB6C, symBinAddr: 0xF398, symSize: 0x40 }
  - { offset: 0x85166, size: 0x8, addend: 0x0, symName: __ZN8nlohmann16json_abi_v3_12_06detail20external_constructorILNS1_7value_tE6EE9constructINS0_10basic_jsonINSt3__13mapENS7_6vectorENS7_12basic_stringIcNS7_11char_traitsIcEENS7_9allocatorIcEEEEbxydSD_NS0_14adl_serializerENS9_IhNSD_IhEEEEvEEEEvRT_NSK_17number_unsigned_tE, symObjAddr: 0xF0E8, symBinAddr: 0xF914, symSize: 0x40 }
  - { offset: 0x851F5, size: 0x8, addend: 0x0, symName: __ZN8nlohmann16json_abi_v3_12_06detail11parse_errorC1ERKS2_, symObjAddr: 0xF128, symBinAddr: 0xF954, symSize: 0x60 }
  - { offset: 0x85275, size: 0x8, addend: 0x0, symName: __ZN8nlohmann16json_abi_v3_12_06detail11parse_errorD0Ev, symObjAddr: 0xF188, symBinAddr: 0xF9B4, symSize: 0x38 }
  - { offset: 0x852FA, size: 0x8, addend: 0x0, symName: __ZN8nlohmann16json_abi_v3_12_06detail19json_sax_dom_parserINS0_10basic_jsonINSt3__13mapENS4_6vectorENS4_12basic_stringIcNS4_11char_traitsIcEENS4_9allocatorIcEEEEbxydSA_NS0_14adl_serializerENS6_IhNSA_IhEEEEvEENS1_20input_stream_adapterEE10end_objectEv.cold.2, symObjAddr: 0x16CF0, symBinAddr: 0x165E0, symSize: 0x28 }
  - { offset: 0x85312, size: 0x8, addend: 0x0, symName: __ZN8nlohmann16json_abi_v3_12_06detail19json_sax_dom_parserINS0_10basic_jsonINSt3__13mapENS4_6vectorENS4_12basic_stringIcNS4_11char_traitsIcEENS4_9allocatorIcEEEEbxydSA_NS0_14adl_serializerENS6_IhNSA_IhEEEEvEENS1_20input_stream_adapterEE10end_objectEv.cold.1, symObjAddr: 0x16CC8, symBinAddr: 0x165B8, symSize: 0x28 }
  - { offset: 0x8532A, size: 0x8, addend: 0x0, symName: __ZN8nlohmann16json_abi_v3_12_06detail19json_sax_dom_parserINS0_10basic_jsonINSt3__13mapENS4_6vectorENS4_12basic_stringIcNS4_11char_traitsIcEENS4_9allocatorIcEEEEbxydSA_NS0_14adl_serializerENS6_IhNSA_IhEEEEvEENS1_20input_stream_adapterEE3keyERSC_.cold.2, symObjAddr: 0x16D40, symBinAddr: 0x16630, symSize: 0x28 }
  - { offset: 0x85342, size: 0x8, addend: 0x0, symName: __ZN8nlohmann16json_abi_v3_12_06detail19json_sax_dom_parserINS0_10basic_jsonINSt3__13mapENS4_6vectorENS4_12basic_stringIcNS4_11char_traitsIcEENS4_9allocatorIcEEEEbxydSA_NS0_14adl_serializerENS6_IhNSA_IhEEEEvEENS1_20input_stream_adapterEE3keyERSC_.cold.1, symObjAddr: 0x16D18, symBinAddr: 0x16608, symSize: 0x28 }
  - { offset: 0x8535A, size: 0x8, addend: 0x0, symName: __ZN8nlohmann16json_abi_v3_12_06detail19json_sax_dom_parserINS0_10basic_jsonINSt3__13mapENS4_6vectorENS4_12basic_stringIcNS4_11char_traitsIcEENS4_9allocatorIcEEEEbxydSA_NS0_14adl_serializerENS6_IhNSA_IhEEEEvEENS1_20input_stream_adapterEE9end_arrayEv.cold.2, symObjAddr: 0x16D90, symBinAddr: 0x16680, symSize: 0x28 }
  - { offset: 0x85372, size: 0x8, addend: 0x0, symName: __ZN8nlohmann16json_abi_v3_12_06detail19json_sax_dom_parserINS0_10basic_jsonINSt3__13mapENS4_6vectorENS4_12basic_stringIcNS4_11char_traitsIcEENS4_9allocatorIcEEEEbxydSA_NS0_14adl_serializerENS6_IhNSA_IhEEEEvEENS1_20input_stream_adapterEE9end_arrayEv.cold.1, symObjAddr: 0x16D68, symBinAddr: 0x16658, symSize: 0x28 }
  - { offset: 0x854D9, size: 0x8, addend: 0x0, symName: __ZNSt3__16vectorIN8nlohmann16json_abi_v3_12_010basic_jsonINS_3mapES0_NS_12basic_stringIcNS_11char_traitsIcEENS_9allocatorIcEEEEbxydS8_NS2_14adl_serializerENS0_IhNS8_IhEEEEvEENS8_ISE_EEE30__emplace_back_assume_capacityB9nqe210106IJNS2_6detail7value_tEEEEvDpOT_, symObjAddr: 0xF9EC, symBinAddr: 0x10158, symSize: 0x4C }
  - { offset: 0x85701, size: 0x8, addend: 0x0, symName: __ZNSt3__16vectorIN8nlohmann16json_abi_v3_12_010basic_jsonINS_3mapES0_NS_12basic_stringIcNS_11char_traitsIcEENS_9allocatorIcEEEEbxydS8_NS2_14adl_serializerENS0_IhNS8_IhEEEEvEENS8_ISE_EEE24__emplace_back_slow_pathIJNS2_6detail7value_tEEEEPSE_DpOT_, symObjAddr: 0xFA38, symBinAddr: 0x101A4, symSize: 0x11C }
  - { offset: 0x85AA8, size: 0x8, addend: 0x0, symName: __ZN8nlohmann16json_abi_v3_12_06detail19json_sax_dom_parserINS0_10basic_jsonINSt3__13mapENS4_6vectorENS4_12basic_stringIcNS4_11char_traitsIcEENS4_9allocatorIcEEEEbxydSA_NS0_14adl_serializerENS6_IhNSA_IhEEEEvEENS1_20input_stream_adapterEE12handle_valueINS1_7value_tEEEPSG_OT_.cold.2, symObjAddr: 0x16DE0, symBinAddr: 0x166B4, symSize: 0xC }
  - { offset: 0x85AC0, size: 0x8, addend: 0x0, symName: __ZN8nlohmann16json_abi_v3_12_06detail19json_sax_dom_parserINS0_10basic_jsonINSt3__13mapENS4_6vectorENS4_12basic_stringIcNS4_11char_traitsIcEENS4_9allocatorIcEEEEbxydSA_NS0_14adl_serializerENS6_IhNSA_IhEEEEvEENS1_20input_stream_adapterEE12handle_valueINS1_7value_tEEEPSG_OT_.cold.1, symObjAddr: 0x16DD4, symBinAddr: 0x166A8, symSize: 0xC }
  - { offset: 0x85BD8, size: 0x8, addend: 0x0, symName: __ZNSt3__16vectorIN8nlohmann16json_abi_v3_12_010basic_jsonINS_3mapES0_NS_12basic_stringIcNS_11char_traitsIcEENS_9allocatorIcEEEEbxydS8_NS2_14adl_serializerENS0_IhNS8_IhEEEEvEENS8_ISE_EEE24__emplace_back_slow_pathIJRdEEEPSE_DpOT_, symObjAddr: 0xFC90, symBinAddr: 0x103FC, symSize: 0x118 }
  - { offset: 0x860BE, size: 0x8, addend: 0x0, symName: __ZNSt3__16vectorIN8nlohmann16json_abi_v3_12_010basic_jsonINS_3mapES0_NS_12basic_stringIcNS_11char_traitsIcEENS_9allocatorIcEEEEbxydS8_NS2_14adl_serializerENS0_IhNS8_IhEEEEvEENS8_ISE_EEE24__emplace_back_slow_pathIJRbEEEPSE_DpOT_, symObjAddr: 0xFEE4, symBinAddr: 0x10650, symSize: 0x118 }
  - { offset: 0x8659C, size: 0x8, addend: 0x0, symName: __ZNSt3__16vectorIN8nlohmann16json_abi_v3_12_010basic_jsonINS_3mapES0_NS_12basic_stringIcNS_11char_traitsIcEENS_9allocatorIcEEEEbxydS8_NS2_14adl_serializerENS0_IhNS8_IhEEEEvEENS8_ISE_EEE24__emplace_back_slow_pathIJDnEEEPSE_DpOT_, symObjAddr: 0x10144, symBinAddr: 0x108B0, symSize: 0x118 }
  - { offset: 0x86A88, size: 0x8, addend: 0x0, symName: __ZNSt3__16vectorIN8nlohmann16json_abi_v3_12_010basic_jsonINS_3mapES0_NS_12basic_stringIcNS_11char_traitsIcEENS_9allocatorIcEEEEbxydS8_NS2_14adl_serializerENS0_IhNS8_IhEEEEvEENS8_ISE_EEE24__emplace_back_slow_pathIJRxEEEPSE_DpOT_, symObjAddr: 0x10398, symBinAddr: 0x10B04, symSize: 0x118 }
  - { offset: 0x86F6D, size: 0x8, addend: 0x0, symName: __ZNSt3__16vectorIN8nlohmann16json_abi_v3_12_010basic_jsonINS_3mapES0_NS_12basic_stringIcNS_11char_traitsIcEENS_9allocatorIcEEEEbxydS8_NS2_14adl_serializerENS0_IhNS8_IhEEEEvEENS8_ISE_EEE24__emplace_back_slow_pathIJRSA_EEEPSE_DpOT_, symObjAddr: 0x105BC, symBinAddr: 0x10D28, symSize: 0x10C }
  - { offset: 0x87368, size: 0x8, addend: 0x0, symName: __ZNSt3__16vectorIN8nlohmann16json_abi_v3_12_010basic_jsonINS_3mapES0_NS_12basic_stringIcNS_11char_traitsIcEENS_9allocatorIcEEEEbxydS8_NS2_14adl_serializerENS0_IhNS8_IhEEEEvEENS8_ISE_EEE24__emplace_back_slow_pathIJRyEEEPSE_DpOT_, symObjAddr: 0x10804, symBinAddr: 0x10F70, symSize: 0x118 }
  - { offset: 0x877F2, size: 0x8, addend: 0x0, symName: __ZNSt3__16__treeINS_12__value_typeINS_12basic_stringIcNS_11char_traitsIcEENS_9allocatorIcEEEEN8nlohmann16json_abi_v3_12_010basic_jsonINS_3mapENS_6vectorES7_bxydS5_NS9_14adl_serializerENSC_IhNS5_IhEEEEvEEEENS_19__map_value_compareIS7_NS_4pairIKS7_SG_EENS_4lessIvEELb1EEENS5_ISL_EEE4findIA10_cEENS_15__tree_iteratorISH_PNS_11__tree_nodeISH_PvEElEERKT_, symObjAddr: 0x10CE4, symBinAddr: 0x11450, symSize: 0x88 }
  - { offset: 0x87965, size: 0x8, addend: 0x0, symName: __ZN8nlohmann16json_abi_v3_12_06detail16invalid_iterator6createIPKNS0_10basic_jsonINSt3__13mapENS5_6vectorENS5_12basic_stringIcNS5_11char_traitsIcEENS5_9allocatorIcEEEEbxydSB_NS0_14adl_serializerENS7_IhNSB_IhEEEEvEELi0EEES2_iRKSD_T_, symObjAddr: 0x10EFC, symBinAddr: 0x11668, symSize: 0x148 }
  - { offset: 0x883FB, size: 0x8, addend: 0x0, symName: __ZNSt3__112basic_stringIcNS_11char_traitsIcEENS_9allocatorIcEEE17__assign_externalEPKcm, symObjAddr: 0x11078, symBinAddr: 0x117E4, symSize: 0xB8 }
  - { offset: 0x888DC, size: 0x8, addend: 0x0, symName: __ZNSt3__16__treeINS_12__value_typeINS_12basic_stringIcNS_11char_traitsIcEENS_9allocatorIcEEEEN8nlohmann16json_abi_v3_12_010basic_jsonINS_3mapENS_6vectorES7_bxydS5_NS9_14adl_serializerENSC_IhNS5_IhEEEEvEEEENS_19__map_value_compareIS7_NS_4pairIKS7_SG_EENS_4lessIvEELb1EEENS5_ISL_EEE25__emplace_unique_key_argsIS7_JS7_DnEEENSJ_INS_15__tree_iteratorISH_PNS_11__tree_nodeISH_PvEElEEbEERKT_DpOT0_, symObjAddr: 0x11384, symBinAddr: 0x11A68, symSize: 0x84 }
  - { offset: 0x88A7B, size: 0x8, addend: 0x0, symName: __ZNSt3__16__treeINS_12__value_typeINS_12basic_stringIcNS_11char_traitsIcEENS_9allocatorIcEEEEN8nlohmann16json_abi_v3_12_010basic_jsonINS_3mapENS_6vectorES7_bxydS5_NS9_14adl_serializerENSC_IhNS5_IhEEEEvEEEENS_19__map_value_compareIS7_NS_4pairIKS7_SG_EENS_4lessIvEELb1EEENS5_ISL_EEE16__construct_nodeIJS7_DnEEENS_10unique_ptrINS_11__tree_nodeISH_PvEENS_22__tree_node_destructorINS5_ISV_EEEEEEDpOT_, symObjAddr: 0x11408, symBinAddr: 0x11AEC, symSize: 0x80 }
  - { offset: 0x89DBA, size: 0x8, addend: 0x0, symName: __ZN7Network6FakeIPD1Ev, symObjAddr: 0x121F8, symBinAddr: 0x123A0, symSize: 0x30 }
  - { offset: 0x89ECA, size: 0x8, addend: 0x0, symName: __ZNSt3__112__hash_tableINS_17__hash_value_typeINS_12basic_stringIcNS_11char_traitsIcEENS_9allocatorIcEEEEjEENS_22__unordered_map_hasherIS7_NS_4pairIKS7_jEENS_4hashIS7_EENS_8equal_toIS7_EELb1EEENS_21__unordered_map_equalIS7_SC_SG_SE_Lb1EEENS5_ISC_EEED2Ev, symObjAddr: 0x12278, symBinAddr: 0x12420, symSize: 0x38 }
  - { offset: 0x8A00D, size: 0x8, addend: 0x0, symName: __ZNSt3__112__hash_tableINS_17__hash_value_typeIjNS_12basic_stringIcNS_11char_traitsIcEENS_9allocatorIcEEEEEENS_22__unordered_map_hasherIjNS_4pairIKjS7_EENS_4hashIjEENS_8equal_toIjEELb1EEENS_21__unordered_map_equalIjSC_SG_SE_Lb1EEENS5_ISC_EEED2Ev, symObjAddr: 0x122F4, symBinAddr: 0x1249C, symSize: 0x38 }
  - { offset: 0x8A454, size: 0x8, addend: 0x0, symName: __ZNSt3__112__hash_tableINS_17__hash_value_typeINS_12basic_stringIcNS_11char_traitsIcEENS_9allocatorIcEEEEjEENS_22__unordered_map_hasherIS7_NS_4pairIKS7_jEENS_4hashIS7_EENS_8equal_toIS7_EELb1EEENS_21__unordered_map_equalIS7_SC_SG_SE_Lb1EEENS5_ISC_EEE17__deallocate_nodeEPNS_16__hash_node_baseIPNS_11__hash_nodeIS8_PvEEEE, symObjAddr: 0x122B0, symBinAddr: 0x12458, symSize: 0x44 }
  - { offset: 0x8A880, size: 0x8, addend: 0x0, symName: __ZNSt3__112__hash_tableINS_17__hash_value_typeIjNS_12basic_stringIcNS_11char_traitsIcEENS_9allocatorIcEEEEEENS_22__unordered_map_hasherIjNS_4pairIKjS7_EENS_4hashIjEENS_8equal_toIjEELb1EEENS_21__unordered_map_equalIjSC_SG_SE_Lb1EEENS5_ISC_EEE17__deallocate_nodeEPNS_16__hash_node_baseIPNS_11__hash_nodeIS8_PvEEEE, symObjAddr: 0x1232C, symBinAddr: 0x124D4, symSize: 0x44 }
  - { offset: 0x8AC09, size: 0x8, addend: 0x0, symName: __ZZN7Network6FakeIP17EnsureInitializedEvENKUlvE_clEv, symObjAddr: 0x1237C, symBinAddr: 0x12524, symSize: 0x2F4 }
  - { offset: 0x8BFA4, size: 0x8, addend: 0x0, symName: __ZN7Network6FakeIP9ParseCidrERKNSt3__112basic_stringIcNS1_11char_traitsIcEENS1_9allocatorIcEEEERjSA_, symObjAddr: 0x12670, symBinAddr: 0x12818, symSize: 0x154 }
  - { offset: 0x8CB36, size: 0x8, addend: 0x0, symName: __ZNSt3__112__hash_tableINS_17__hash_value_typeIjNS_12basic_stringIcNS_11char_traitsIcEENS_9allocatorIcEEEEEENS_22__unordered_map_hasherIjNS_4pairIKjS7_EENS_4hashIjEENS_8equal_toIjEELb1EEENS_21__unordered_map_equalIjSC_SG_SE_Lb1EEENS5_ISC_EEE8__rehashILb1EEEvm, symObjAddr: 0x12BF0, symBinAddr: 0x12D98, symSize: 0xD0 }
  - { offset: 0x8CC31, size: 0x8, addend: 0x0, symName: __ZNSt3__122__hash_node_destructorINS_9allocatorINS_11__hash_nodeINS_17__hash_value_typeIjNS_12basic_stringIcNS_11char_traitsIcEENS1_IcEEEEEEPvEEEEEclB9nqe210106EPSB_, symObjAddr: 0x12DF4, symBinAddr: 0x12F9C, symSize: 0x50 }
  - { offset: 0x8CE57, size: 0x8, addend: 0x0, symName: __ZNSt3__112__hash_tableINS_17__hash_value_typeIjNS_12basic_stringIcNS_11char_traitsIcEENS_9allocatorIcEEEEEENS_22__unordered_map_hasherIjNS_4pairIKjS7_EENS_4hashIjEENS_8equal_toIjEELb1EEENS_21__unordered_map_equalIjSC_SG_SE_Lb1EEENS5_ISC_EEE11__do_rehashILb1EEEvm, symObjAddr: 0x12CC0, symBinAddr: 0x12E68, symSize: 0x134 }
  - { offset: 0x8D1A5, size: 0x8, addend: 0x0, symName: __ZNSt3__122__hash_node_destructorINS_9allocatorINS_11__hash_nodeINS_17__hash_value_typeIjNS_12basic_stringIcNS_11char_traitsIcEENS1_IcEEEEEEPvEEEEEclB9nqe210106EPSB_, symObjAddr: 0x12DF4, symBinAddr: 0x12F9C, symSize: 0x50 }
  - { offset: 0x8D485, size: 0x8, addend: 0x0, symName: __ZZN7Network6FakeIP23EnsureSharedInitializedEvENKUlvE_clEv, symObjAddr: 0x12EA0, symBinAddr: 0x13048, symSize: 0x61C }
  - { offset: 0x8E910, size: 0x8, addend: 0x0, symName: __ZZZN7Network6FakeIP23EnsureSharedInitializedEvENKUlvE_clEvENKUlvE0_clEv, symObjAddr: 0x134BC, symBinAddr: 0x13664, symSize: 0x17C }
  - { offset: 0x8F39E, size: 0x8, addend: 0x0, symName: __ZZZN7Network6FakeIP23EnsureSharedInitializedEvENKUlvE_clEvENKUlvE_clEv, symObjAddr: 0x13638, symBinAddr: 0x137E0, symSize: 0x124 }
  - { offset: 0x8FCCB, size: 0x8, addend: 0x0, symName: __ZNKSt3__113__string_hashIcNS_9allocatorIcEEEclB9nqe210106ERKNS_12basic_stringIcNS_11char_traitsIcEES2_EE, symObjAddr: 0x13A58, symBinAddr: 0x13C00, symSize: 0x3C }
  - { offset: 0x8FDB4, size: 0x8, addend: 0x0, symName: __ZNKSt3__18equal_toINS_12basic_stringIcNS_11char_traitsIcEENS_9allocatorIcEEEEEclB9nqe210106ERKS6_S9_, symObjAddr: 0x13F00, symBinAddr: 0x140A8, symSize: 0x70 }
  - { offset: 0x8FDFF, size: 0x8, addend: 0x0, symName: __ZNKSt3__18equal_toINS_12basic_stringIcNS_11char_traitsIcEENS_9allocatorIcEEEEEclB9nqe210106ERKS6_S9_, symObjAddr: 0x13F00, symBinAddr: 0x140A8, symSize: 0x70 }
  - { offset: 0x8FE30, size: 0x8, addend: 0x0, symName: __ZNKSt3__18equal_toINS_12basic_stringIcNS_11char_traitsIcEENS_9allocatorIcEEEEEclB9nqe210106ERKS6_S9_, symObjAddr: 0x13F00, symBinAddr: 0x140A8, symSize: 0x70 }
  - { offset: 0x8FE4C, size: 0x8, addend: 0x0, symName: __ZNKSt3__18equal_toINS_12basic_stringIcNS_11char_traitsIcEENS_9allocatorIcEEEEEclB9nqe210106ERKS6_S9_, symObjAddr: 0x13F00, symBinAddr: 0x140A8, symSize: 0x70 }
  - { offset: 0x8FF50, size: 0x8, addend: 0x0, symName: __ZNSt3__112__hash_tableINS_17__hash_value_typeINS_12basic_stringIcNS_11char_traitsIcEENS_9allocatorIcEEEEjEENS_22__unordered_map_hasherIS7_NS_4pairIKS7_jEENS_4hashIS7_EENS_8equal_toIS7_EELb1EEENS_21__unordered_map_equalIS7_SC_SG_SE_Lb1EEENS5_ISC_EEE21__construct_node_hashIRKNS_21piecewise_construct_tEJNS_5tupleIJRSB_EEENSQ_IJEEEEEENS_10unique_ptrINS_11__hash_nodeIS8_PvEENS_22__hash_node_destructorINS5_ISX_EEEEEEmOT_DpOT0_, symObjAddr: 0x139AC, symBinAddr: 0x13B54, symSize: 0xAC }
  - { offset: 0x903F2, size: 0x8, addend: 0x0, symName: __ZNSt3__122__hash_node_destructorINS_9allocatorINS_11__hash_nodeINS_17__hash_value_typeINS_12basic_stringIcNS_11char_traitsIcEENS1_IcEEEEjEEPvEEEEEclB9nqe210106EPSB_, symObjAddr: 0x14174, symBinAddr: 0x14118, symSize: 0x50 }
  - { offset: 0x90955, size: 0x8, addend: 0x0, symName: __ZNKSt3__121__murmur2_or_cityhashImLm64EEclB9nqe210106EPKvm, symObjAddr: 0x13A94, symBinAddr: 0x13C3C, symSize: 0x208 }
  - { offset: 0x90FB6, size: 0x8, addend: 0x0, symName: __ZNSt3__121__murmur2_or_cityhashImLm64EE18__hash_len_0_to_16B9nqe210106EPKcm, symObjAddr: 0x13C9C, symBinAddr: 0x13E44, symSize: 0xF8 }
  - { offset: 0x911C8, size: 0x8, addend: 0x0, symName: __ZNSt3__121__murmur2_or_cityhashImLm64EE19__hash_len_33_to_64B9nqe210106EPKcm, symObjAddr: 0x13E40, symBinAddr: 0x13FE8, symSize: 0xC0 }
  - { offset: 0x91439, size: 0x8, addend: 0x0, symName: __ZNSt3__121__murmur2_or_cityhashImLm64EE19__hash_len_17_to_32B9nqe210106EPKcm, symObjAddr: 0x13D94, symBinAddr: 0x13F3C, symSize: 0xAC }
  - { offset: 0x917BE, size: 0x8, addend: 0x0, symName: __ZNSt3__122__hash_node_destructorINS_9allocatorINS_11__hash_nodeINS_17__hash_value_typeINS_12basic_stringIcNS_11char_traitsIcEENS1_IcEEEEjEEPvEEEEEclB9nqe210106EPSB_, symObjAddr: 0x14174, symBinAddr: 0x14118, symSize: 0x50 }
  - { offset: 0x91856, size: 0x8, addend: 0x0, symName: __ZN4Core6ConfigD1Ev, symObjAddr: 0x141C4, symBinAddr: 0x14168, symSize: 0x4 }
  - { offset: 0x91888, size: 0x8, addend: 0x0, symName: __ZN4Core6ConfigD1Ev, symObjAddr: 0x141C4, symBinAddr: 0x14168, symSize: 0x4 }
  - { offset: 0x9189C, size: 0x8, addend: 0x0, symName: __ZN4Core6ConfigD2Ev, symObjAddr: 0x14444, symBinAddr: 0x143E8, symSize: 0xA8 }
  - { offset: 0x921D8, size: 0x8, addend: 0x0, symName: __ZN4Core10ProxyRulesC2Ev, symObjAddr: 0x142D0, symBinAddr: 0x14274, symSize: 0xCC }
  - { offset: 0x9256C, size: 0x8, addend: 0x0, symName: __ZN4Core11ProxyConfigD1Ev, symObjAddr: 0x14290, symBinAddr: 0x14234, symSize: 0x40 }
  - { offset: 0x92852, size: 0x8, addend: 0x0, symName: __ZNSt3__16vectorItNS_9allocatorItEEE16__init_with_sizeB9nqe210106IPKtS6_EEvT_T0_m, symObjAddr: 0x1439C, symBinAddr: 0x14340, symSize: 0x70 }
  - { offset: 0x92CED, size: 0x8, addend: 0x0, symName: __ZNSt3__16vectorItNS_9allocatorItEEE11__vallocateB9nqe210106Em, symObjAddr: 0x1440C, symBinAddr: 0x143B0, symSize: 0x38 }
  - { offset: 0x92D47, size: 0x8, addend: 0x0, symName: __ZN4Core6ConfigD2Ev, symObjAddr: 0x14444, symBinAddr: 0x143E8, symSize: 0xA8 }
  - { offset: 0x92DFF, size: 0x8, addend: 0x0, symName: __ZN7Network12Socks5Client9WaitForFdEibi, symObjAddr: 0x14D1C, symBinAddr: 0x14BEC, symSize: 0x24C }
  - { offset: 0x93E96, size: 0x8, addend: 0x0, symName: __ZNSt3__112__hash_tableINS_17__hash_value_typeINS_12basic_stringIcNS_11char_traitsIcEENS_9allocatorIcEEEEjEENS_22__unordered_map_hasherIS7_NS_4pairIKS7_jEENS_4hashIS7_EENS_8equal_toIS7_EELb1EEENS_21__unordered_map_equalIS7_SC_SG_SE_Lb1EEENS5_ISC_EEE4findIS7_EENS_15__hash_iteratorIPNS_11__hash_nodeIS8_PvEEEERKT_, symObjAddr: 0x1569C, symBinAddr: 0x1556C, symSize: 0xEC }
  - { offset: 0x94077, size: 0x8, addend: 0x0, symName: __ZNSt3__112__hash_tableINS_17__hash_value_typeINS_12basic_stringIcNS_11char_traitsIcEENS_9allocatorIcEEEEjEENS_22__unordered_map_hasherIS7_NS_4pairIKS7_jEENS_4hashIS7_EENS_8equal_toIS7_EELb1EEENS_21__unordered_map_equalIS7_SC_SG_SE_Lb1EEENS5_ISC_EEE5eraseENS_21__hash_const_iteratorIPNS_11__hash_nodeIS8_PvEEEE, symObjAddr: 0x15788, symBinAddr: 0x15658, symSize: 0x48 }
  - { offset: 0x941AC, size: 0x8, addend: 0x0, symName: __ZNSt3__112__hash_tableINS_17__hash_value_typeINS_12basic_stringIcNS_11char_traitsIcEENS_9allocatorIcEEEEjEENS_22__unordered_map_hasherIS7_NS_4pairIKS7_jEENS_4hashIS7_EENS_8equal_toIS7_EELb1EEENS_21__unordered_map_equalIS7_SC_SG_SE_Lb1EEENS5_ISC_EEE6removeENS_21__hash_const_iteratorIPNS_11__hash_nodeIS8_PvEEEE, symObjAddr: 0x157D0, symBinAddr: 0x156A0, symSize: 0x11C }
  - { offset: 0x94224, size: 0x8, addend: 0x0, symName: __ZNSt3__112__hash_tableINS_17__hash_value_typeINS_12basic_stringIcNS_11char_traitsIcEENS_9allocatorIcEEEEjEENS_22__unordered_map_hasherIS7_NS_4pairIKS7_jEENS_4hashIS7_EENS_8equal_toIS7_EELb1EEENS_21__unordered_map_equalIS7_SC_SG_SE_Lb1EEENS5_ISC_EEE6removeENS_21__hash_const_iteratorIPNS_11__hash_nodeIS8_PvEEEE, symObjAddr: 0x157D0, symBinAddr: 0x156A0, symSize: 0x11C }
  - { offset: 0x94240, size: 0x8, addend: 0x0, symName: __ZNSt3__112__hash_tableINS_17__hash_value_typeINS_12basic_stringIcNS_11char_traitsIcEENS_9allocatorIcEEEEjEENS_22__unordered_map_hasherIS7_NS_4pairIKS7_jEENS_4hashIS7_EENS_8equal_toIS7_EELb1EEENS_21__unordered_map_equalIS7_SC_SG_SE_Lb1EEENS5_ISC_EEE6removeENS_21__hash_const_iteratorIPNS_11__hash_nodeIS8_PvEEEE, symObjAddr: 0x157D0, symBinAddr: 0x156A0, symSize: 0x11C }
  - { offset: 0x94EDA, size: 0x8, addend: 0x0, symName: __ZNSt3__112__hash_tableINS_17__hash_value_typeIijEENS_22__unordered_map_hasherIiNS_4pairIKijEENS_4hashIiEENS_8equal_toIiEELb1EEENS_21__unordered_map_equalIiS6_SA_S8_Lb1EEENS_9allocatorIS6_EEE25__emplace_unique_key_argsIiJRKNS_21piecewise_construct_tENS_5tupleIJRS5_EEENSL_IJEEEEEENS4_INS_15__hash_iteratorIPNS_11__hash_nodeIS2_PvEEEEbEERKT_DpOT0_, symObjAddr: 0x15DA8, symBinAddr: 0x15A2C, symSize: 0x204 }
  - { offset: 0x956A6, size: 0x8, addend: 0x0, symName: __ZNSt3__112__hash_tableINS_17__hash_value_typeIi16sockaddr_storageEENS_22__unordered_map_hasherIiNS_4pairIKiS2_EENS_4hashIiEENS_8equal_toIiEELb1EEENS_21__unordered_map_equalIiS7_SB_S9_Lb1EEENS_9allocatorIS7_EEE4findIiEENS_15__hash_iteratorIPNS_11__hash_nodeIS3_PvEEEERKT_, symObjAddr: 0x161B0, symBinAddr: 0x15C30, symSize: 0xA8 }
  - { offset: 0x9573E, size: 0x8, addend: 0x0, symName: __ZNSt3__112__hash_tableINS_17__hash_value_typeIi16sockaddr_storageEENS_22__unordered_map_hasherIiNS_4pairIKiS2_EENS_4hashIiEENS_8equal_toIiEELb1EEENS_21__unordered_map_equalIiS7_SB_S9_Lb1EEENS_9allocatorIS7_EEE5eraseENS_21__hash_const_iteratorIPNS_11__hash_nodeIS3_PvEEEE, symObjAddr: 0x1628C, symBinAddr: 0x15D0C, symSize: 0x40 }
  - { offset: 0x96119, size: 0x8, addend: 0x0, symName: __GLOBAL__sub_I_AntigravityTun.cpp, symObjAddr: 0x18CF0, symBinAddr: 0x15E94, symSize: 0x98 }
  - { offset: 0x9645E, size: 0x8, addend: 0x0, symName: _OUTLINED_FUNCTION_0, symObjAddr: 0x16EA0, symBinAddr: 0x15D4C, symSize: 0x20 }
  - { offset: 0x96476, size: 0x8, addend: 0x0, symName: _OUTLINED_FUNCTION_1, symObjAddr: 0x16EC0, symBinAddr: 0x15D6C, symSize: 0x20 }
  - { offset: 0x9648E, size: 0x8, addend: 0x0, symName: _OUTLINED_FUNCTION_2, symObjAddr: 0x16EE0, symBinAddr: 0x15D8C, symSize: 0x20 }
  - { offset: 0x964A6, size: 0x8, addend: 0x0, symName: _OUTLINED_FUNCTION_3, symObjAddr: 0x16F00, symBinAddr: 0x15DAC, symSize: 0xC }
  - { offset: 0x964BE, size: 0x8, addend: 0x0, symName: _OUTLINED_FUNCTION_4, symObjAddr: 0x16F0C, symBinAddr: 0x15DB8, symSize: 0x20 }
  - { offset: 0x964D6, size: 0x8, addend: 0x0, symName: _OUTLINED_FUNCTION_5, symObjAddr: 0x16F2C, symBinAddr: 0x15DD8, symSize: 0x20 }
  - { offset: 0x964EE, size: 0x8, addend: 0x0, symName: _OUTLINED_FUNCTION_6, symObjAddr: 0x16F4C, symBinAddr: 0x15DF8, symSize: 0x20 }
  - { offset: 0x96506, size: 0x8, addend: 0x0, symName: _OUTLINED_FUNCTION_7, symObjAddr: 0x16F6C, symBinAddr: 0x15E18, symSize: 0x20 }
  - { offset: 0x9651E, size: 0x8, addend: 0x0, symName: _OUTLINED_FUNCTION_8, symObjAddr: 0x16F8C, symBinAddr: 0x15E38, symSize: 0x14 }
  - { offset: 0x96536, size: 0x8, addend: 0x0, symName: _OUTLINED_FUNCTION_9, symObjAddr: 0x16FA0, symBinAddr: 0x15E4C, symSize: 0x14 }
  - { offset: 0x9654E, size: 0x8, addend: 0x0, symName: _OUTLINED_FUNCTION_10, symObjAddr: 0x16FB4, symBinAddr: 0x15E60, symSize: 0xC }
  - { offset: 0x96566, size: 0x8, addend: 0x0, symName: _OUTLINED_FUNCTION_11, symObjAddr: 0x16FC0, symBinAddr: 0x15E6C, symSize: 0xC }
  - { offset: 0x9657E, size: 0x8, addend: 0x0, symName: _OUTLINED_FUNCTION_12, symObjAddr: 0x16FCC, symBinAddr: 0x15E78, symSize: 0x1C }
...
