{"main_library":{"exported_symbols":[{"data":{"global":["__ZN4Core6Logger20s_fileLoggingEnabledE","__ZN4Core6Logger5s_mtxE","__ZN4Core6Logger6s_fileE","__ZN4Core6Logger7s_levelE"],"objc_class":["AntigravityTun"],"weak":["__ZNSt3__119piecewise_constructE"]},"text":{"global":["__Z10LoaderInitv","__Z10my_connectiPK8sockaddrj","__Z14my_getaddrinfoPKcS0_PK8addrinfoPPS1_","__Z14my_getpeernameiP8sockaddrPj","__Z8my_closei"]}},{"data":{"weak":["__ZTIN8nlohmann16json_abi_v3_12_06detail10type_errorE","__ZTIN8nlohmann16json_abi_v3_12_06detail11parse_errorE","__ZTIN8nlohmann16json_abi_v3_12_06detail12out_of_rangeE","__ZTIN8nlohmann16json_abi_v3_12_06detail16invalid_iteratorE","__ZTIN8nlohmann16json_abi_v3_12_06detail9exceptionE","__ZTINSt3__117bad_function_callE","__ZTSN8nlohmann16json_abi_v3_12_06detail10type_errorE","__ZTSN8nlohmann16json_abi_v3_12_06detail11parse_errorE","__ZTSN8nlohmann16json_abi_v3_12_06detail12out_of_rangeE","__ZTSN8nlohmann16json_abi_v3_12_06detail16invalid_iteratorE","__ZTSN8nlohmann16json_abi_v3_12_06detail9exceptionE","__ZTSNSt3__117bad_function_callE"]},"targets":["x86_64-macos"]}],"flags":[{"attributes":["not_app_extension_safe"]}],"install_names":[{"name":"/usr/local/lib/libAntigravityTun.dylib"}],"target_info":[{"min_deployment":"13","target":"x86_64-macos"},{"min_deployment":"13","target":"arm64-macos"}]},"tapi_tbd_version":5}
